(lp1
Vdomainindia-org
p2
aVschco
p3
aVdakota-digital
p4
aVpalavern-maven
p5
aVuntil-sunday
p6
aVbirketts
p7
aVpartizan-pro
p8
aVwalz-tetrick-advertising
p9
aVtraction-central
p10
aVcentral-michigan-research-corporation
p11
aVscrumlink
p12
aVhair-removal-skin-rejuvenation
p13
aVreddie-and-grose
p14
aVroythornes
p15
aVsmultron
p16
aVmarghany-advocates
p17
aVjuice-cleanse
p18
aV3-day-juice-cleanse
p19
aVbest-kale-chips
p20
aVjhon-smith
p21
aVbitpay
p22
aVscanlan-leo
p23
aVbetter-future
p24
aVsajahan-net
p25
aVadirondack-marketing
p26
aVwarrick-boyn
p27
aVwebsite-interface
p28
aVmobile-interface
p29
aVux-track-for-improvements
p30
aVui-track-for-improvements
p31
aVtourism
p32
aVpsd-to-joomla-theme
p33
aVpsd-to-wordpress-theme-conversion
p34
aVrotary-joint
p35
aVelectrical-slip-ring
p36
aVpratt-law-group
p37
aVmechanica
p38
aVsummit
p39
aVkitchen-provance-caterers
p40
aVearlysail
p41
aVvirante
p42
aVluca-pagano
p43
aVluca-zilioli
p44
aVarturo-ferraro-pelle
p45
aVsolar-window-film
p46
aVdecorative-window-film
p47
aVndash-marketing
p48
aVloudinpublic
p49
aVdarren-green
p50
aVguy-bauer-productions
p51
aVbrown-winick
p52
aVentrepreneurial-technologies
p53
aVjackson-dodge-chrysler-jeep
p54
aVjade-associates
p55
aVsagency-de
p56
aVbondi-dental-care
p57
aVklf-writing-services
p58
aVbitfactory-bv
p59
aVhome-renovation
p60
aVhome-improvement
p61
aVhome-insulation
p62
aVscientific-healthcare-pvt-ltd
p63
aVntt-data
p64
aVjeremy
p65
aVgrellas
p66
aVrevelry-co
p67
aVchaffe-mccall-l-l-p
p68
aVrt7-digital
p69
aVcrucial-australia
p70
aVcacet-australia
p71
aVnexle-corporation
p72
aVnavionics
p73
aVgunnercooke-llp
p74
aVcrowe-horwath
p75
aVbody-treatments
p76
aVwedding-catering
p77
aVmad-cats-media
p78
aVpeterson-russell-kelly
p79
aVgandhi-gandhi
p80
aVatlas-hall
p81
aVibarra-compaa
p82
aVid-card-kits
p83
aVvision-launchers
p84
aVdevelopertown
p85
aV3-hawks-consulting
p86
aVsteyer-co-cpa
p87
aVin-home-care-services
p88
aVkimono-labs
p89
aVmandrill
p90
aVkaltura
p91
aVelasticsearch
p92
aVhortonworks
p93
aVbreast-implants
p94
aVbreast-enhancement
p95
aVcosmetic-surgery
p96
aVplastic-surgeon
p97
aVbreast-lift
p98
aVnysoftware-ltd
p99
aVdouble-forte
p100
aVtelco
p101
aVbusiness-branding
p102
aVdigital-branding
p103
aVanalytics-and-reporting
p104
aVmobile-backend-as-a-service
p105
aVliving-your-brand
p106
aVcliffe-dekker
p107
aVgg-accounting
p108
aVann-mcnally
p109
aVgeoffrey-weber
p110
aVsrs-advogados
p111
aVbig-data
p112
aVcarl-sjstedt
p113
aVblakes
p114
aVhuge-medium
p115
aVtolingo
p116
aVseo-buzz-internet-marketing
p117
aVseoplus-2
p118
aVearth-exchange-thrift-store
p119
aVcontactually
p120
aVclifton-thomas-cpa
p121
aVappriver
p122
aVadiglobal
p123
aVaxis-communication
p124
aVpacific-law-group
p125
aVairport-services
p126
aVvanacour-schuler-zarin
p127
aVwilson-fletcher
p128
aVskill-development
p129
aVcompany-registration-in-india
p130
aVbook-keeping-outsourcing
p131
aVpayroll-outsourcing-services-india
p132
aVaudit-and-assurance
p133
aVnri-services
p134
aVassistance-on-capital-market-transactions
p135
aVpost-incorporation-compliance
p136
aVtax-services
p137
aVmr-jinendra-shah
p138
aVfull-body-massage
p139
aVshellac-nails
p140
aVeyebrow-threading
p141
aVmassage
p142
aVfacial-treatment
p143
aVbrazilian-wax
p144
aVpayment-processing
p145
aVid-card-printing-services
p146
aVemployee-identification
p147
aVicuk-computing-services
p148
aVfaegre-baker-daniels
p149
aVpremier-sedan
p150
aVscitech-communications-llc
p151
aVr-b-consulting
p152
aVmommy-makeover
p153
aVfacelift
p154
aVbreast-augmentation
p155
aVnitrohost
p156
aVblue-nile
p157
aVwellers
p158
aVclyde-co
p159
aVtin-walker-fulton-associates
p160
aV880am-the-biz-radio-miami
p161
aVreact-brands
p162
aVbrandmerk
p163
aVinvolution-studios
p164
aVincome-tax-services
p165
aVe-filing-services
p166
aVcompany-formation
p167
aVt3-advisors
p168
aVfringe-digital-marketing-agency
p169
aVbreast-surgery
p170
aVbody-surgery
p171
aVface-surgery
p172
aVmedical-spa
p173
aVawt-marketing-inc
p174
aVscarletbrown
p175
aV1st-alliance-lending-llc
p176
aVbloom-cohen-hayes
p177
aVmiracleworks-studios
p178
aVgraphic-edge
p179
aVgrowth-engineering
p180
aVvado
p181
aVgallup
p182
aVwebsite-design-2
p183
aVbarcode-labels
p184
aVcustomlabelswithbarcode
p185
aVzebra-label-printer
p186
aVzebra-printer-label
p187
aVdymo-labels
p188
aVshippinglabelprinters
p189
aVbarcoderibbon
p190
aVbarcode-printers
p191
aVbarcodelabelprinters
p192
aVlabel-rewinders
p193
aVcloudfl
p194
aVsuresh
p195
aVverge-ventures
p196
aVherzog-fox-neeman
p197
aVcalifornia-minority-counsel-program
p198
aVstress-testing-tools
p199
aVindex-universe
p200
aVbarchart
p201
aVcint-ab
p202
aVuniversidade-positivo
p203
aVpersona-pr
p204
aVjim-chapman
p205
aVabsolute-home-care
p206
aVchelsea-minicab-chelsea-taxis
p207
aVglobal-business-center
p208
aVmcgrath-power-public-relations
p209
aVtechprspider
p210
aVerp-software-for-manufacturing
p211
aVniehaus-ryan
p212
aVmanatt-digital
p213
aVolswang-llp
p214
aVchianglawpc-com
p215
aVpoyner-spruill
p216
aVirwin-mitchell
p217
aVeducational-service
p218
aVwilliam
p219
aVideara-r1soft
p220
aVhome-for-sale-service
p221
aVives-insurance-service-inc
p222
aV49seoservices-com
p223
aVppc-services
p224
aVnikos
p225
aVg-p-market
p226
aVwdalaw
p227
aVtaylor-machine-works
p228
aVhome-for-sell
p229
aVbeauty-salons-tigard
p230
aVnail-technology-portland
p231
aVmakeup-school-portland
p232
aVbest-beauty-school
p233
aVnikos-logistics
p234
aVsalway-wright
p235
aVbarclays-bank
p236
aVfokus-digital-services
p237
aVplots
p238
aVsecond-language-design
p239
aVmagento-contact-form-extension-velanapps-com
p240
aVzopim
p241
aVtony-brigenja
p242
aVriverfreeze-consulting
p243
aVhttp-vimeo-com-lampafilmz-lampafilmzintro
p244
aVturpin-lucas-less
p245
aVdwf
p246
aVhappyfarm
p247
aVarma-development-llc
p248
aVbulk-sms
p249
aVcentral-sterilization-solutions
p250
aVnetservers
p251
aVpierce-mccoy-llp
p252
aVbrilliant-law
p253
aVkeystone
p254
aVon-the-spot
p255
aVmpr-group
p256
aVnorton-gledhill
p257
aVwasabi-rabbit
p258
aVrussell-cooke
p259
aVmicro-business-team
p260
aVpotts-blacklock-pllc
p261
aVneo-technology
p262
aVairpush
p263
aVthe-trade-desk
p264
aVbing-ads
p265
aVsitescout
p266
aVimmix-law
p267
aVakt
p268
aVdc-analytics
p269
aVkegler-brown-hill-ritter
p270
aVkpi-bsc
p271
aVe-learning
p272
aVvincent-line-llc
p273
aVek-tax-accounting
p274
aVoceandigital
p275
aVneo-technologies
p276
aVstudio-41-creative
p277
aVdigitouch
p278
aVreklamaction
p279
aVadtriplex
p280
aVnext-performance
p281
aVcriteo
p282
aVzanox
p283
aVhull-speed-associates
p284
aVweinberg-gonser
p285
aVnsbn-llp
p286
aVflick-software
p287
aVelectric-medialand
p288
aVstorth-lane-consultants
p289
aVechos-communications
p290
aVfelix-web-solutions
p291
aVwebmama-com
p292
aVswoosh-media
p293
aVpayoneer
p294
aVedelman-pr
p295
aVphoenix-title-loans-llc
p296
aVcity-national
p297
aVfrancois-laugier
p298
aVmd-anderson-cancer-center
p299
aVcybrdi
p300
aVdana-farber-cancer-institute
p301
aVbackstage-digital
p302
aVeyemove-digital
p303
aVapiki-com
p304
aVroyce-law-firm
p305
aVhennis-white
p306
aValerstallings
p307
aVst-thomas-more-catholic-newman-center
p308
aVlarry-aaronson-and-paul-coakley
p309
aVsoftware-application
p310
aVterrabit-consulting-pte-ltd
p311
aVnestgsv
p312
aVpondelwilkinson-inc
p313
aVbyron-davin
p314
aV49-seo-services
p315
aVout-about-communications
p316
aVdk-new-media
p317
aVfitzpatrick-lentz-bubba-p-c
p318
aVkhalid-alomari
p319
aVicecat
p320
aVpure-pr-and-marketing-inc
p321
aVbaker-tilly-roelfs
p322
aVtenancycleaning
p323
aVdistributedigital
p324
aVwework
p325
aVifps-made-in-new-york-media-center
p326
aVbrickell-link
p327
aVtrujillo-vargas-ortiz-gonzalez-llp
p328
aVheatandcool-com
p329
aVjanice-mccafferty-pr
p330
aVget-kudos
p331
aVjustuuno
p332
aVco-working-961
p333
aVjk58
p334
aVabserotec
p335
aVucla
p336
aVbell-pottinger
p337
aVjuice
p338
aVfoutsis-and-partners-law-firm
p339
aVdave-muchow
p340
aVrader-and-fishman-law
p341
aVebizz-world
p342
aVholimetrix-by-d-bi
p343
aVbooz-and-company
p344
aVhatstand
p345
aVvelletta-company
p346
aVdowning-street-pr
p347
aVchi-partners
p348
aVtalon
p349
aVdahui-lawyers
p350
aVlexisnexis
p351
aVnewstex
p352
aVsyndigate
p353
aVpch-international
p354
aVhighway-1
p355
aVthe-stone-clinic
p356
aVsproutsocial-com
p357
aVstumbleupon-com
p358
aVzago-social-online-media
p359
aVzago-it-solutions
p360
aVzago-crm-system
p361
aVidea-village
p362
aVpci-service-provider
p363
aVhiperlmparas-miguel-gema-s-l
p364
aVprofessional-landscape-designs
p365
aVgarden-designs
p366
aVretaining-walls
p367
aVpaving
p368
aVpool-surrounds
p369
aVdriveways
p370
aVlandscaping
p371
aVconcreting
p372
aVsandstone-works
p373
aVdecking
p374
aVfencing
p375
aVirrigation-systems
p376
aVbrick-block-laying
p377
aVresponsive-web-design
p378
aVunwork
p379
aVndh-group
p380
aVfenway-strategies
p381
aVthe-mis-department
p382
aVeye-to-eye-communications
p383
aVbcs
p384
aVexpress-tribune
p385
aV1000ft-cat6-cmp-plenum-cable
p386
aVbier-legal
p387
aVingram-yuzek-gainen-carroll-bertolotti-llp
p388
aVnone
p389
aVduke-legal-startup-clinic
p390
aVmediamind
p391
aVkate-marek
p392
aVcard-io
p393
aVcasper-seven-inc
p394
aVabreu-advogados
p395
aVwright-brothers-institute
p396
aVleather-accessories-and-apparels
p397
aVdazines
p398
aVmarketing-2
p399
aVmantra-information-services
p400
aVfourth-day
p401
aVbarros-y-errzuriz
p402
aVreferralcandy
p403
aVjustuno
p404
aVfuture-biotech
p405
aVrbth
p406
aVorion-capital-advisors
p407
aVoceana-consulting
p408
aVsantex
p409
aVbitbucket
p410
aVwpml
p411
aVchempetitive
p412
aVwebcreativo
p413
aVbuyonz-srl
p414
aVaccredited-training-auditors
p415
aVkada-internet-tech
p416
aVtelerik
p417
aVdevexpress
p418
aVgartner
p419
aVglue-reply
p420
aVamedar-consulting-group
p421
aVemkam-consulting
p422
aVmarket-experts
p423
aV24ip-law-group
p424
aVey
p425
aVghk
p426
aVairlines-services
p427
aVcreative-technosoft-systems
p428
aV10-speed-labs
p429
aVaugust-law-group
p430
aVjohn-gordon-law-group
p431
aVuniversity-of-iowa
p432
aVdns-simple
p433
aVcreative-technosoft-systems-pvt-ltd
p434
aVeden-hr
p435
aVuhy-hacker-young
p436
aVfreeagent-central
p437
aVmulrooney-associates-incorporated
p438
aVteclaw
p439
aVbreeze-associates-ltd
p440
aVshopping-cart-gurus
p441
aVgist-digital
p442
aVwework-labs
p443
aVfima-digital
p444
aVmoreover-technologies
p445
aVohio-flower-delivery
p446
aVgreenhouse
p447
aVtunnel-greenhouse
p448
aVgreenhouse-kits
p449
aVfilm-greenhouse
p450
aVsimmons-perrine
p451
aVbailey-glasser
p452
aVhttp-bozowi-co-uk
p453
aVthe-netcast-network
p454
aVshockefx-media-group
p455
aVcausecode
p456
aVvietnamka
p457
aVhandy-man-things
p458
aVpublicis
p459
aVmagento
p460
aVsam
p461
aVrpost
p462
aVairport-shuttle-service
p463
aVhershman-cohen-llc
p464
aVmalecki-tasch-burns
p465
aVcindy-murphy
p466
aVone1
p467
aVfull-time-8-hrs-a-day-magento-developer
p468
aVsemi-part-time-2-hrs-a-day-magento-developer
p469
aVpart-time-4-hrs-a-day-magento-developer
p470
aVsolidcam
p471
aVstratasys
p472
aVellen-block
p473
aVdrive-public-relations
p474
aVtranspacific-law-group
p475
aVproduct-2
p476
aVprospectz
p477
aVlife-jackets
p478
aVzest-digital
p479
aVfoga-daley
p480
aVsungjin-joo
p481
aVshaw-website-design-group
p482
aVflite-evolution
p483
aVdinamomilano
p484
aVbibibus
p485
aVbluepr
p486
aVgrayling
p487
aVdeepak-panda
p488
aVbridgelane-capital
p489
aVgary-shusterman
p490
aVkitehill-pr
p491
aVangelovski
p492
aVmcpcom
p493
aVfruit-vegetable-crusher
p494
aVsteam-jacketted-kettle
p495
aVkettle-fixed-type
p496
aVvaccum-fillers-machine
p497
aVpiston-filler
p498
aVpp-cap-sealer
p499
aVlug-cap-sealer-india
p500
aVmoulding-machine-india
p501
aVwater-testing-lab-setups-india
p502
aVlabelling-machine
p503
aVfruit-juice-plant-india
p504
aVhomogenizer-for-fruit-juice-india
p505
aVpasteurizermachines-india
p506
aVcip-system-delhi
p507
aVstainless-steel-tanks
p508
aVdairy-plant-supplier-india
p509
aVdairy-plant-homogenizer
p510
aVdairy-plant-pasteuriser-india
p511
aVtanks-for-dairy-plant
p512
aVmineral-water-plant
p513
aVmineral-water-plant-layout
p514
aVro-manufacturer-india
p515
aVpet-bottle-filling-machine
p516
aVbottle-filling-machine
p517
aVjar-filling-machine
p518
aVcup-filling-machine
p519
aVpouch-machine
p520
aVcreativezones-solutions
p521
aVhoneycomb-consulting
p522
aVsmhweb-inc
p523
aVacorn-systems
p524
aVdata-synapse
p525
aVgeelmuyden-kiese
p526
aVmig-welding-machine
p527
aVroteck-equipment
p528
aVtig-welding-machine
p529
aVarc-welding-machine
p530
aVdwolla
p531
aVsolavei
p532
aVoptimizely
p533
aVcheck-bus-fare
p534
aVbus-ticket-reservation
p535
aVonline-bus-ticket-booking
p536
aVwedding-coordinator
p537
aVtroy-foster-wsgr
p538
aVsmart-biggar-fetherstonhaugh
p539
aVcapstone
p540
aVloza-ip
p541
aVglobe-runner
p542
aVrekevida-consultants
p543
aVabalaka-co
p544
aVenspire
p545
aVrekevida-consults-ltd
p546
aVbitcoinread
p547
aVjuphoon-system-software
p548
aVplate-heat-exchanger
p549
aVwestern-car
p550
aVwestern-carslt
p551
aVwestern-car-lt
p552
aVwesterncar-ltd
p553
aVwestern-cars-ltd
p554
aVwestern-cars
p555
aVwesterncars
p556
aVwesterncars-ltd
p557
aVwesterncarsltd
p558
aVwestern-carsltd
p559
aVwesterncarltd
p560
aVwestern-carltd
p561
aVwestern-cars-lt
p562
aVlee-shlamowitz-esquire
p563
aVrodrigo-betancourt
p564
aVchaikin-cohen-rubin-co
p565
aVkatzenell-dimant
p566
aV2check
p567
aV24-7
p568
aVncs-singtel-subsidary
p569
aVconvergys
p570
aVlott-fisher
p571
aVolivier-glaser
p572
aVpaver-smith
p573
aVmotionmobs
p574
aVdavison-williams
p575
aVanything-digital-com
p576
aVcasillas-law
p577
aVtectrad-legal-financial-service
p578
aVdepartment-of-justice
p579
aVcalifornia-dmv
p580
aVsian-pacific-american-legal-center
p581
aVapan-business-legal-translation
p582
aVe-u-marketing-communication
p583
aVsecure-vpn-connection
p584
aVfree-vpn-trial
p585
aVbridgelane
p586
aVzhonglun-law
p587
aVshelston-ip
p588
aVclicked-solutions
p589
aVkirkland-ellis-llp
p590
aVoliff-berridge-plc
p591
aVcity-national-bank
p592
aVatlanticbt
p593
aVngc-communications
p594
aVjamie-fugitt
p595
aVbeavis-morgan
p596
aVrussell-cooke-solicitors
p597
aVgcc
p598
aVonline-advertising-services
p599
aVsurgeboom
p600
aVatt-iphone-unlock-com
p601
aVhttp-letsunlockiphone5-com
p602
aVfrancescoignagn
p603
aVkevin-mcanally
p604
aVmartin-wojtulewicz
p605
aVwebmama-com-inc
p606
aVsparro
p607
aVpaywith
p608
aVgraham-allen-partners
p609
aVgearshifting-inc
p610
aVclaritus-consulting
p611
aVkeltie-llp
p612
aVjoelson-wilson-llp
p613
aVsheridans
p614
aVnyc-crown-limo
p615
aVereleases
p616
aVtravel-to-india
p617
aVweb-development-services
p618
aVweb-development-2
p619
aVweb-application-development-2
p620
aVseo-services-ludhiana
p621
aVweb-designing-company
p622
aVsoup-creative
p623
aVzatmans
p624
aVorthodontics
p625
aVbotox-cosmetic
p626
aVcosmetic-dentistry
p627
aVessay-avenue
p628
aVakado-oy
p629
aVproduction-company
p630
aVrootstock-partners
p631
aVcreative-zone-dubai
p632
aVquintas-jardim-fernanes
p633
aVap-madeira
p634
aVthe-ocean-agency
p635
aVomg-ad-agency
p636
aVkomili-ad-agency
p637
aVinpress
p638
aVchristopher-cloke-browne-bravepartners-london-chris-bravepartners-com
p639
aVchristopher-cloke-browne-chris-bravepartners-com
p640
aVjusttotaltech
p641
aVbrandsurge-marketing
p642
aVpayments-afrika
p643
aVcarlos-zumpano
p644
aVandres-sckolznik
p645
aVjessica-donlon
p646
aVt-shirt-printing
p647
aVcustom-apparel
p648
aVpolo-embroidery
p649
aVpersonalised-t-shirts
p650
aVt-shirts
p651
aVhoodies
p652
aVpictons-solicitors
p653
aVhttp-www-twgworld-com
p654
aVbc-madison-wi
p655
aVunity-technologies
p656
aVgrp-gesto-de-recursos-e-participaes
p657
aVmutual-pr
p658
aVcommercial-pest-control
p659
aVbed-bug-control
p660
aVpest-control-animal-bird-control
p661
aVprestashop-customization
p662
aVprestashop-integration
p663
aVpsd-to-prestashop
p664
aVkpgm
p665
aVparadise-bakery
p666
aVoakwood-law-office
p667
aVwha-services-ltd
p668
aVescal-consulting
p669
aVwsgr-palo-alto-ca
p670
aVboardman-clark
p671
aVcynexis-media
p672
aVhttp-www-zes-co-il
p673
aVholidays-in-croatia
p674
aVwilliam-g-strench
p675
aVvictor-miraflor
p676
aVconnect2-communications
p677
aVhotwire
p678
aVmindworks-gmbh
p679
aVneuron-processing
p680
aVdogsgo-walkin
p681
aVinterline-brands
p682
aVsherwin-williams
p683
aVoffice-depot
p684
aVvenkat
p685
aVnick-olsson
p686
aVk-l-gates-3
p687
aVfusion
p688
aVbmt-patent
p689
aVharris-trotter
p690
aVpenningtons-manches-llp
p691
aVdimple
p692
aVgeneral-dentistry
p693
aVdriscoll-public-relations
p694
aV420-at
p695
aVmobile-repair
p696
aVpc-repair
p697
aVdesktop-repair
p698
aViphone-unlocking
p699
aVcakephp-development
p700
aVcakephp-application-development
p701
aVcakephp-customization
p702
aVcakephp-cms-development
p703
aVcakephp-integration
p704
aVcakephp-shopping-cart
p705
aVliberty-bank
p706
aVcyclos-org
p707
aVlymphedema
p708
aVsunev
p709
aVcyber-law-studios
p710
aVcapture-point-media
p711
aVperry-douglas-west-chartered
p712
aVincapsula
p713
aVdatto
p714
aVstoragecraft
p715
aVsecureworks
p716
aVbecker-poliakoff
p717
aVveraz
p718
aVdineromail
p719
aVoca
p720
aVcorreo-argentino
p721
aVurbano-express
p722
aVmercado-pago
p723
aVatomicduo
p724
aVlaw-focus-partners
p725
aVpelikn-krofta-kohoutek
p726
aVgust-com
p727
aVbank-of-the-philippine-islands
p728
aVnarciso-law-office
p729
aVsocial-trade-organisation
p730
aVmichael-grant-and-company
p731
aVegytuby
p732
aVsocial-ecommerce
p733
aValtis-danismanlik
p734
aVbatu-hukuk
p735
aVhogan-lovells
p736
aVwaggener-edstrom
p737
aValldigital
p738
aVrhythm-interactive
p739
aVsolam-international
p740
aVkemper-lesnik
p741
aVmz-group
p742
aVtacey-goss
p743
aVbaltoro
p744
aVuninet
p745
aVtelmex
p746
aVnorcom
p747
aVtranstelco
p748
aVfortythree-pr
p749
aVbruni-pr
p750
aVcovington-burling-llp
p751
aVplinga
p752
aVbigpoint
p753
aVmcgrath-power
p754
aVsparity
p755
aVm-farooq-khan
p756
aVaegis-professional-services
p757
aVyoung
p758
aVthe-hodges-partnership
p759
aVfahrenheit-finance
p760
aVosterfeld-american-textiles-llc
p761
aVkenneth-carden
p762
aVspanish-chamber-of-commerce
p763
aVbrazilian-chamber-of-commerce
p764
aVpay-zone
p765
aVpay-point
p766
aVcontabo-gmbh
p767
aVthe-abbi-agency
p768
aVlanier-ford-shaver-and-payne
p769
aVbeeg-shob
p770
aVmustardpr
p771
aVbumppr
p772
aVogee-magazine
p773
aVestomar91
p774
aVjoshua-r-buhler-buhler-duggal-henry-llp
p775
aVinternational-legal-counsels-www-femida-us
p776
aVfounders-fund
p777
aVtransatel
p778
aVcognatel
p779
aVtelefonica
p780
aVee
p781
aVarizona-exterminating-co
p782
aVna-thakur-enterprises
p783
aVheidi-lidholm
p784
aVmindshare-consulting
p785
aVlucy-freeman
p786
aVsocial-network-solutions
p787
aVmark-allen-co-pr
p788
aVeigital
p789
aVrobert-rudnick
p790
aVtack-mobile
p791
aVhotweazel
p792
aVamanda-taub
p793
aVten-forward
p794
aVknupp-watson-wallman
p795
aVwebzilla
p796
aVbuhl
p797
aVdavid-judson
p798
aVphp-application-development
p799
aVphp-cms-development
p800
aVphp-shopping-cart-development
p801
aValston-and-bird
p802
aVjeffrey-p-lieser
p803
aVrockwell-olivier
p804
aVregard
p805
aVmainstream
p806
aVryanada-limited
p807
aVyandex
p808
aVifood-jo
p809
aVchild-sponsorship
p810
aVbarnes-broyles
p811
aVarnall-golden-gregory
p812
aVandrius-ikauskas
p813
aVla-paz-residence-hall
p814
aVdunn-direct-media
p815
aVtryolabs
p816
aVnesenoff-miltenberg-llp
p817
aVcox-creative
p818
aVstaffords
p819
aVjh-social-media
p820
aVjeff-muir-marketing-communications
p821
aVresidence-hall-association-rha
p822
aVyuma-residence-hall
p823
aVapache-residence-hall
p824
aVpresbyterian-campus-ministry
p825
aVcampus-christian-center
p826
aVopv
p827
aVdmm-hamburg
p828
aVwagner-saarbrcken
p829
aVvil-wieske
p830
aVhesse-hallermann-pr-hamburg
p831
aValibaba
p832
aVasianproducts
p833
aVvitaliy-tishin
p834
aValexander-moroz
p835
aVrackspace-com
p836
aVmcafee-secure
p837
aVstripe-com
p838
aVtrustcommerce
p839
aVbenchmark
p840
aVlongtail-video
p841
aVzaheer-abbas-2
p842
aVrana-mahboob-tahir
p843
aVsana-gul
p844
aV2013cartier
p845
aVvitis-pr
p846
aVbytesnap-design
p847
aVbluefrog
p848
aVnext-digital-indonesia
p849
aVassociated-press
p850
aVirl-productions
p851
aVdaugherty
p852
aVapps-store-optimization
p853
aVtours
p854
aVspree-commerce
p855
aVteamshare
p856
aVmixpanel
p857
aVunrivalled-media
p858
aVbyrne-wallace
p859
aVrsm
p860
aVeminutes
p861
aVjamie-pruitt-law
p862
aVmediapr
p863
aVi-newswire
p864
aVsemseogurus-com
p865
aVpurut-law-offices
p866
aVconsulta
p867
aVuniversity-of-arizona-hillel
p868
aVjimmy-johns
p869
aVtrader-joes
p870
aVrubin-brown-llp
p871
aVbryan-cave-llp
p872
aVroofers-coffee-shop
p873
aVsoftware-advice
p874
aVntt-communications
p875
aVcolocrossing
p876
aVgennari-aronson
p877
aVemail-marketing-company
p878
aVemail-marketing-companies
p879
aVstratus-interactive
p880
aVindependent-school-counsel
p881
aVivynow-com
p882
aVsmit-digital-marketing
p883
aVgarden-furniture
p884
aVoutdoor-furniture
p885
aVoutdoor-garden-furniture
p886
aVwrought-iron-furniture
p887
aVtrucking-companies
p888
aVmichael-hool
p889
aVmatt-bycer
p890
aVdosun-shin
p891
aVfashion-rooftop
p892
aVhabif-arogeti-wynne
p893
aVexpert-rating
p894
aVexcelsior-college
p895
aVplastic-surgery
p896
aVnon-surgical
p897
aVamz
p898
aVnovak-druce-connoly-bove-quigg
p899
aVworkman-nydeggar
p900
aVgeneral-salim-m-nyula
p901
aVsalim-finance
p902
aVspinx-digital
p903
aVthousand-minds
p904
aVcustomer-support
p905
aVchat-support
p906
aVwexley
p907
aVtyroo
p908
aVdigicorp
p909
aVivr-lab
p910
aVlevel9solutions
p911
aVstoriesout
p912
aVgardiner-roberts-llc
p913
aVxedios-freedom-design
p914
aVstartup-hive
p915
aVcrowdpad
p916
aVlynch-communications
p917
aVjuan-pablo-cappello
p918
aVtrenam-kemker
p919
aVsmallseotools
p920
aValisha
p921
aVbrand-branding
p922
aVpsd-to-html
p923
aVecho-factory
p924
aVradium-labs
p925
aVmongo-hq
p926
aVknod-es
p927
aVnest-new-york
p928
aVglobumbus
p929
aVpczl-law
p930
aVeasypost
p931
aVsing
p932
aVdata-entry-3
p933
aVimage-editing
p934
aVback-office
p935
aVaccounting-service
p936
aVpositive-marketing
p937
aValx-communications
p938
aVvos-marketing-communications
p939
aVrnr-associates
p940
aVholzer-ip-law
p941
aVventure-law-advisors
p942
aVamadeus-consulting
p943
aVtanoira-cassagne
p944
aVschipani-asoc
p945
aVbandro-technologies
p946
aVjoel-katz
p947
aVthe-dialog-lab
p948
aVdentons-llc
p949
aVnew-south-innovations
p950
aVsmart-services-crc
p951
aVnsw-trade-investment
p952
aVmark-fackrell
p953
aVadtoma
p954
aVcompaq
p955
aVventury-avocats
p956
aVdso
p957
aVkexino
p958
aVthe-dilorenzo-law-firm-llc
p959
aVteam-services
p960
aVh-s-companies-p-c
p961
aVmbm-intellectual-property-law
p962
aVthe-team-group
p963
aVgia-marketing-llc
p964
aVthe-shanahan-law-firm
p965
aVmediapark-llc-lithuania
p966
aVsoundest-llc-lithuania
p967
aVglimstedt-law-firm-lithuania
p968
aVvrp-hill-knowlton-strategies
p969
aVtravelocity
p970
aVswitchnap
p971
aVwilliams-mullen
p972
aVmcgladrey
p973
aVthird-team-media
p974
aVwave-systems
p975
aValliacense
p976
aVgallagher-briody-butler
p977
aVmossack-fonseca
p978
aVmarital-property
p979
aVthailand-work-permit
p980
aVcompany-registration
p981
aVthailand-boi
p982
aVthailand-title-deeds
p983
aVbuying-thailand-property
p984
aVimmigration-services
p985
aVthailand-marriage-registration
p986
aVthailand-divorce
p987
aVthailand-prenuptial-agreement
p988
aVchild-custody
p989
aVchild-support
p990
aVzomisys-technologies-pvt-ltd
p991
aVwww-trustedok-com
p992
aVqsit-global
p993
aVkitchen-appliance-repair
p994
aVlaundry-appliance-repair
p995
aVair-conditioning-repair
p996
aVac-sales-installation
p997
aVsteenstrup-stordrange
p998
aVphoenix-ux
p999
aVpaul-martin
p1000
aVfused180
p1001
aVthe-bendell-corporation
p1002
aVclique-studios
p1003
aVwilliams-welser-kratcoski-can-l-l-c
p1004
aVsilicon-house
p1005
aVpolo-tecnologico-di-pavia
p1006
aVcarento
p1007
aVppr
p1008
aVthe-frontier-group
p1009
aVpsychologist
p1010
aVbetaworks
p1011
aVhotels-combined
p1012
aVdacheng-law-offices
p1013
aVwebster-powell
p1014
aVdentons
p1015
aVmckinsey-company
p1016
aVcapgemini
p1017
aVactivestandards
p1018
aVmy-business-counsel
p1019
aVaventura-infotech
p1020
aVmewburn-ellis-llp
p1021
aVandrew-baxter
p1022
aVsage-co
p1023
aVmettalloids-limited
p1024
aVcatalyses
p1025
aVrafael
p1026
aVthird-shore-group
p1027
aVangela-betancourt
p1028
aVpricewaterhousecoopers-2
p1029
aVazran-financial
p1030
aVgravatar
p1031
aVsiteworkers
p1032
aVadam-solomon
p1033
aVthe-partners-group
p1034
aVklgates
p1035
aVgibsons-lodgings-of-annapolis
p1036
aVagency-orange
p1037
aVjp-cruz
p1038
aVglobal-press
p1039
aVgrayrobinson
p1040
aVblonde2-0
p1041
aVbrewedlabs
p1042
aVanino-games
p1043
aVmarch-communications-2
p1044
aVimpact-republic
p1045
aVdesign4change
p1046
aVerp-software
p1047
aVbdo-audit-assurance
p1048
aVorrric
p1049
aVford-harrison
p1050
aVabd-assoc
p1051
aVapphands
p1052
aVlive-webinar
p1053
aVonline-notes
p1054
aVebooks
p1055
aVwebinar-recordings
p1056
aViologics-ltd
p1057
aVzero-billion
p1058
aVmahattan-mobile-llc
p1059
aVaudentes-marketing
p1060
aVadsense
p1061
aVtransport
p1062
aVplus-two-ltd
p1063
aVaudentes
p1064
aVcorporate-web-design
p1065
aVdolphin-it
p1066
aVmarmot-inc
p1067
aVgi-and-sanicki-lawyers
p1068
aVkddi
p1069
aVwillkie-farr-gallagher
p1070
aVjoseph-serra-cpa
p1071
aVwsi-b2b-marketing
p1072
aVsixt-rental-cars
p1073
aVsixt
p1074
aVatlassian
p1075
aVendeavor-brasil
p1076
aVintel-global-challenge
p1077
aVradio-city
p1078
aVjuice-fm
p1079
aVmayer-brown
p1080
aVn2o-experiential-marketing
p1081
aVjuvana-marketing
p1082
aVvillemor-amaral-attorneys
p1083
aVremer-vilaa-attorneys
p1084
aVsixt-r
p1085
aVmilldam
p1086
aVnicholas-jones
p1087
aVpositivezero-co-uk
p1088
aVreeves-associates
p1089
aVlalchandani-simon-pl
p1090
aVpatent-capital-group
p1091
aVgogrid
p1092
aVapm-law
p1093
aVdoberman
p1094
aVlee-thompson
p1095
aVpulsant
p1096
aVwatertight-legal
p1097
aVroyal-mail
p1098
aVparcelforce
p1099
aVdpd
p1100
aVparcel-monkey
p1101
aVjus-rem
p1102
aVplan9
p1103
aVrk-adler
p1104
aVstallcup-voie
p1105
aVgeliyoo-search
p1106
aVmeister-seelig-fein-llp
p1107
aVgrossbach-associates
p1108
aVpaypal-start-tank
p1109
aVquick-quest
p1110
aVopenstack
p1111
aVdropbox-2
p1112
aVsitecore
p1113
aVsherry-alpert
p1114
aVexaminater
p1115
aV1a-holdings-inc
p1116
aVamerai-business-consulting
p1117
aVmkg
p1118
aVadverve-llc
p1119
aVdorothypr
p1120
aVastrsk-pr
p1121
aVjon-flor
p1122
aVkakeldey-law
p1123
aVaxcept-media
p1124
aVpage-dna
p1125
aVlmgpr
p1126
aVreed-pope-llp
p1127
aVmarkwell-pty-ltd
p1128
aVhttp-www-crunchbase-com-company-chios-global
p1129
aVbaker-botts
p1130
aVmind-matics
p1131
aVkb-collectivee
p1132
aVrush-associatess
p1133
aVparadigm-talent-agencyy
p1134
aVbrillstein-entertainment-partnerss
p1135
aVlazaroff-sales
p1136
aVali-al-ridwan-partners
p1137
aVunison
p1138
aVbeckerman
p1139
aVdreams-creations
p1140
aVzayo
p1141
aVinterworx
p1142
aVdirectadmin
p1143
aVbrocade
p1144
aVhurricane-electric
p1145
aVplante-moran
p1146
aVdevelapps
p1147
aVsocial-noise
p1148
aVdigital-noise
p1149
aVrush-associates
p1150
aVquinn-co
p1151
aVvaluefirst
p1152
aVccavenue
p1153
aVebs
p1154
aVgharpay
p1155
aVcummings-lockwood
p1156
aVbattenhall
p1157
aVpatrick-canan
p1158
aVjcr8
p1159
aVdurham-black
p1160
aVbroadmark-capital
p1161
aVimiller-pr
p1162
aVlamb-kawakami
p1163
aVthomas-knight-trent-king-and-company
p1164
aVmoss-networks
p1165
aVzuno-studios
p1166
aVhackingtag-security
p1167
aVukietech-corp
p1168
aVgoogle-admob
p1169
aVpr-news
p1170
aVcti-commerce
p1171
aVdigitaria-interactive
p1172
aVelle-communications
p1173
aV5ifty-5ifty
p1174
aVwiemelt-knechtel-law-firm
p1175
aVapcrat
p1176
aVmercury
p1177
aVshopkeep-pos
p1178
aVbelcheva-karadjova-llp
p1179
aVsocialkaty
p1180
aVmicah-kasman
p1181
aVleap-2
p1182
aVkasman-design
p1183
aVhuman-networks
p1184
aVcivic-center
p1185
aVjools-payne-partnership
p1186
aVmobmatic
p1187
aVvavazoo
p1188
aVjigglez
p1189
aVdoodapp
p1190
aVbasebone
p1191
aVtatami
p1192
aVdigital-works-consulting
p1193
aVbean-partners
p1194
aVlocimus
p1195
aVtenforward-finance
p1196
aVolapcon
p1197
aVfundedbyme
p1198
aVt6-leadership-development
p1199
aVjeremy-grushcow-b-sc-ph-d-j-d
p1200
aVepiphany-capital
p1201
aVweb-and-rank-ltd
p1202
aVjohnson-law-kc
p1203
aVwemodo
p1204
aValan-spatz
p1205
aVteech-io
p1206
aVblick-rothenberg
p1207
aVfondia-oy
p1208
aVexove
p1209
aVintermarketing
p1210
aVliferay-corporate-training-provider
p1211
aVliferay-development-services
p1212
aValfresco-development
p1213
aVliferay-alfresco-professional-trainer
p1214
aVboyes-turner-llp
p1215
aVwilliams-commerce
p1216
aVcomputoy
p1217
aVagavee
p1218
aVconnect-media
p1219
aVvertsol
p1220
aVj-james-auctioneers-appraisers
p1221
aVfeature-23
p1222
aVwebdigi
p1223
aVhotel-haris-court
p1224
aVguangming-shipping-company
p1225
aVdynamic-solutions
p1226
aVad-peeps-banner-and-text-ad-rotator
p1227
aVtopvisible
p1228
aVuday-bhaskar-kalangi
p1229
aVagilis-associates
p1230
aVkb-collective
p1231
aVbrillstein-entertainment-partners
p1232
aVparadigm-talent-agency
p1233
aVhttp-www-pearanalytics-com
p1234
aVhttp-www-socialradius-com
p1235
aVcatalyst-partners
p1236
aVcerta-legal
p1237
aVdesert-hot-springs-vortex
p1238
aVscio-media
p1239
aVdesert-hot-springs-foundation
p1240
aVrfb-commuunications
p1241
aVpeakbiety-branding-advertising
p1242
aVvisual-alliance-media
p1243
aVmodern-marketing-partners
p1244
aVvsnap
p1245
aVreg-orton
p1246
aVelement-14
p1247
aVrehema-parmena-associates
p1248
aVp-njiiri-associates
p1249
aVwazi-wifi
p1250
aVsienn
p1251
aVaimpr
p1252
aVyext
p1253
aVpaul-pedevillano
p1254
aVpaula-glass
p1255
aVtiscali
p1256
aVconfindustria
p1257
aVunindustria
p1258
aVaruba
p1259
aVscratch-marketing-media
p1260
aVminton-law
p1261
aVhardemon-and-associates
p1262
aVmonosevich-co-law-offices
p1263
aVpmedianetwork
p1264
aVforeignexchangerate-org-uk
p1265
aVmargolin-lawrence
p1266
aVzysman-aharoni-gayer-co
p1267
aVcampervan
p1268
aVstage-boutique
p1269
aVzeppos-rautiola
p1270
aVfrench-west-vaughan
p1271
aVhoschke-consorten
p1272
aVcrisp
p1273
aVcrisp-brand-agency
p1274
aVcarbonite
p1275
aVluminositydemos
p1276
aVquez-media-marketing
p1277
aVnick-demartino-consulting
p1278
aVmprm-communications
p1279
aVgetfound-ie
p1280
aVelkin-group
p1281
aVkeiretsu-forum
p1282
aVflorist
p1283
aVadam-dinow-wilson-sonsini-goodrich-and-rosati
p1284
aVdesign-and-invention
p1285
aVhulu
p1286
aVgetglue
p1287
aVvpfactory
p1288
aVwilson-staff
p1289
aVcrowley-corporate-attorneys
p1290
aVjill-ormond-law
p1291
aVfactual-com
p1292
aVsheridan-ross
p1293
aVwasserman-media
p1294
aVmessner-reeves
p1295
aValan-sheinwald
p1296
aVphp-website-development
p1297
aVmovers-packers-services
p1298
aVhousehold-shifting-services
p1299
aVoffice-relocation-services
p1300
aVwarehousing-services
p1301
aVtollfreeforwarding
p1302
aVseo-articles
p1303
aVnorton-antivirus-technical-support
p1304
aVhutchinson-black-cook
p1305
aVjungle-red-communications
p1306
aVglobal-media-strategies
p1307
aVmanpower-services
p1308
aVestrade-associs
p1309
aVservicios-comerciales-industriales
p1310
aVcontrol-de-comejn-subterrneo
p1311
aVcontrol-de-roedores-control-de-aves
p1312
aVcontrol-de-plagas
p1313
aVcontrol-de-plagas-residencial
p1314
aVazursystems
p1315
aVmajesticseo
p1316
aVmarketing-eye
p1317
aVm-ali-2
p1318
aVus-solar-distributing-inc
p1319
aVw-energies-group
p1320
aVrenewable-republic
p1321
aVall-phase-electric
p1322
aVfsgi
p1323
aVdiatomenterprises
p1324
aVwolf-greenfield-sacks-p-c
p1325
aVgenerali-e-cie-france
p1326
aVappwoz
p1327
aVryan-azlein
p1328
aVdonald-wood
p1329
aVregan-communications
p1330
aVlinda-judge
p1331
aValan-schwartz-ocio
p1332
aVcar-detailing-services
p1333
aValt-f1
p1334
aVchios-global
p1335
aVrio-de-janeiro-comprar-casa
p1336
aVcomprar-apartamento-em-salvador
p1337
aVhttp-www-miditecnologico-com-br
p1338
aVsingleplatform
p1339
aVonosys
p1340
aVappency
p1341
aVrecurring-sales
p1342
aVrecover-lost-revenues
p1343
aVfraud-prevention
p1344
aVapi
p1345
aVpayment
p1346
aVsubscription
p1347
aVmorefield-partners
p1348
aVimg-leading-global-sports-and-media-company
p1349
aVmasschallenge
p1350
aVwesternsoftwares
p1351
aVpublic-republic
p1352
aVmaroc-numeric-cluster
p1353
aVal-akhawayn-incubator
p1354
aVdial-technologies-sa
p1355
aVwhiteboard-law
p1356
aVinteractive-brokers
p1357
aVcbeyond-2
p1358
aVcybersource-authorize-net
p1359
aVpeople-pr
p1360
aVcreative-ideas
p1361
aVkerala-tours-backwaters
p1362
aVspot-gps
p1363
aVservice
p1364
aVtaprock-northwest-grill
p1365
aVswire
p1366
aVimperative-wireless
p1367
aVconscious-minds
p1368
aVstudiofluid
p1369
aVkalia-law-group
p1370
aVdfs-counsel
p1371
aVauth0
p1372
aVdaniel-zimmermann
p1373
aVsplash-creative
p1374
aVafilias
p1375
aVpublic-interest-registry
p1376
aVhandal-morofsky
p1377
aVfuel-growth-group
p1378
aVsouthill-partnership
p1379
aVbuckworths-solicitors
p1380
aVbookkeeping-and-payroll-services-using-quickbooks
p1381
aVintuit-quickbooks
p1382
aVbaillie-accountancy
p1383
aVfsb
p1384
aVkatan-associates
p1385
aVbrandmark-communications
p1386
aVde-franceschi
p1387
aVpan-macmillan
p1388
aVdocomo-europe
p1389
aVron-zacapa
p1390
aVadidas
p1391
aVcleverppc
p1392
aVabg-sunndal-collier
p1393
aVdehns
p1394
aVaudioquest-hdmi-cables
p1395
aVwireworld-starlight
p1396
aVcognition-llp
p1397
aVboylan-code-llp
p1398
aVcpanel
p1399
aVcomerica
p1400
aVthe-culbertson-group
p1401
aVbannerot-law-firm
p1402
aVfirst-data
p1403
aVparasols
p1404
aVeqvarium
p1405
aVsonet-digital-ltd-2
p1406
aVsonet-digital-ltd
p1407
aVbasis-365-accounting
p1408
aVinits
p1409
aVbrushgunz
p1410
aVgofinance
p1411
aVwebmoney
p1412
aVapplico
p1413
aVwexley-school-for-girls
p1414
aVjames-n-schwarz
p1415
aVmusiek-media-group
p1416
aVwebventure-2
p1417
aVdave-platter
p1418
aVglobal-switch
p1419
aViseek
p1420
aVase-networks
p1421
aVboomtown-internet-group
p1422
aVsichenzia-ross-friedman-ference-llp
p1423
aVelagaan
p1424
aVsouth-loop-cpa-llc
p1425
aVwaller-landsen
p1426
aVstrukt
p1427
aVblockhaus-media
p1428
aVgamenhoxiu
p1429
aVbipin-padhi
p1430
aVwebventure-capital
p1431
aVbing
p1432
aVde-franceschi-shefayee-llp
p1433
aValan-weinkrantz-and-company
p1434
aVit-audit-assessment
p1435
aVpenetration-test
p1436
aVconetrix-tandem-software
p1437
aVaspire-cloudhosting
p1438
aVprocopio-cory-hargreaves-savitch
p1439
aVbest-job-site-in-india
p1440
aVbrowne-jacobson
p1441
aVbottle-pr
p1442
aVmyows
p1443
aVpackaging-design
p1444
aVhouse-raising-restumping
p1445
aVmandelbaum-salsburg-lazris-discenza-p-c
p1446
aVvoith-engineering
p1447
aVxtronic
p1448
aVdms-design
p1449
aVacerbis
p1450
aVkrcl
p1451
aVtektraffic
p1452
aVdpk-public-relations
p1453
aVthe-ciso-group
p1454
aVsvb
p1455
aVsewing-scissors
p1456
aVadeptus-partners
p1457
aVhajjar-sutherland-peters-washmon-llp
p1458
aVemerchants
p1459
aVkogan-prober-pc
p1460
aVlifesupply
p1461
aVscissors-sharpening
p1462
aVillume-public-relations
p1463
aVbell-canada
p1464
aVstartup-reykjavik
p1465
aVstudio-legale-avvocato-pierluigi-cesa
p1466
aVwilliam-mills
p1467
aVhttp-www-marketwire-com-press-release-nutcache-invoicing-and-time-tracking-app-its-simple-and-free-1748279-htm
p1468
aVhttp-blog-offlify-com-2013-01-23-free-web-based-time-tracking-software-review-nutcache
p1469
aVosler-hoskin-harcourt-llp
p1470
aVtd-canada-trust
p1471
aVrogers-communications
p1472
aVvisual-mercenary
p1473
aVyaeger-design
p1474
aVjoann-macmaster
p1475
aVbruce-wright
p1476
aVmoving-realocation
p1477
aVcorey-smith
p1478
aVbret-brestel
p1479
aVjessica-draper
p1480
aVpeter-norback
p1481
aVstephanie-hanson
p1482
aVuniversity-of-arizona-campus-health-services
p1483
aVwhole-foods-market
p1484
aVbrooke-beard
p1485
aVashely-dickerson
p1486
aVasua-legal-services
p1487
aVjon-livengood
p1488
aVdoty-barlow-britt-and-thieman
p1489
aVmotley-pr
p1490
aVcosmetic-laser-technician
p1491
aVgiant-size-media
p1492
aVinfectmedia
p1493
aVinstall-heating-systems
p1494
aVplumbing-companies
p1495
aVheating-and-cooling-systems
p1496
aVfounderfuel
p1497
aVteltonika
p1498
aVwilson-sonsini-goodrich-rosati-3
p1499
aVmyworklife
p1500
aVagency-zebra
p1501
aVlaurieann-lassek
p1502
aVpinsent-masons
p1503
aVquantumwave-capital
p1504
aVclearsoft-inc
p1505
aVpedersen-haupt
p1506
aVeuropcar
p1507
aVhertz
p1508
aVbudget
p1509
aVnational-car
p1510
aVthrifty
p1511
aVdollar
p1512
aVavis
p1513
aVjim
p1514
aVbitcoin-pr-buzz
p1515
aVchicago-sun-times
p1516
aVjob-board
p1517
aVexecutive-search
p1518
aVenne3
p1519
aVvalhalla-software-ltd
p1520
aVarnold-fooks-chadwick-solicitors
p1521
aVdruces-llp
p1522
aVshout-analytics
p1523
aVreptiledog-llc
p1524
aVmedianet
p1525
aVsrr-magazines
p1526
aVjennifer-lankford
p1527
aVbigcommerce
p1528
aVchange-management
p1529
aVchannel-strategy
p1530
aVdigital-strategy
p1531
aVcustomer-intelligence
p1532
aVprogram-management
p1533
aVvision-and-strategy
p1534
aVmarketing-strategy
p1535
aVbusiness-intelligence
p1536
aVbuying-homes
p1537
aVhome-appraisal
p1538
aVfirehost
p1539
aVignite-visibility
p1540
aV101
p1541
aVkarmarama
p1542
aVhavas-media
p1543
aVm-c-saatchi
p1544
aVcreature-london
p1545
aVglobal-websoft
p1546
aVcpusage
p1547
aVskin-treatments
p1548
aVgorczycka
p1549
aVsioux
p1550
aVchiropractic-care
p1551
aVphysical-therapy
p1552
aVchiropractor
p1553
aVlower-back-pain-treatment
p1554
aVwallstech
p1555
aVwells-fargo
p1556
aVfrafrank-vargas-rincon-law
p1557
aVproperty-management-software
p1558
aVhastings-pleadwell
p1559
aVpineapple-tweed
p1560
aVempowered-presentations
p1561
aVcommodity-research-solutions
p1562
aVmailsac
p1563
aVivr-solutions
p1564
aVmicrosoft-office365
p1565
aVmicrosoft-exchange
p1566
aVandroid
p1567
aViphone
p1568
aVblackberry
p1569
aVmicrosoft-dynamic-crm
p1570
aVmicrosoft-dynamic-gp
p1571
aVmixbound-marketing
p1572
aVt-swift-m-sdn-bhd
p1573
aVgokhale-co-chartered-accountants
p1574
aVsmarttraffic-co-uk
p1575
aVwattsware
p1576
aVlaw-offices-of-kamran-emdadi
p1577
aVdonald-walker-esq
p1578
aVsherweb
p1579
aVtrace-publicity
p1580
aVkate
p1581
aVtutorials-and-classes
p1582
aVphotography
p1583
aVsales
p1584
aVcohn-reznick
p1585
aViis-corp
p1586
aVsme-workforce
p1587
aVservices
p1588
aVproducts
p1589
aVgravitate-online
p1590
aVwixelhq
p1591
aVworldwide-stock-transfer-llc
p1592
aVmichael-t-studer-cpa-p-c
p1593
aVdaniel-luciano-esq
p1594
aVthe-eversull-group-inc
p1595
aVkat-garcia
p1596
aVhart-giles
p1597
aVsell
p1598
aVbuy
p1599
aVdecca-media-llc
p1600
aVconvometrics
p1601
aVvocal-interactive
p1602
aVquickbooks
p1603
aVaweber-2
p1604
aVicontact-2
p1605
aVaweber-2
p1606
aVicontact-2
p1607
aVuw-minority-business-awards-c2s-technologies-wins-rising-star-award-for-fast-growth
p1608
aVcone
p1609
aVkimberely-greene
p1610
aVcoal-it
p1611
aVstephen-osborn
p1612
aVwebmerge-me
p1613
aVabout-us
p1614
aVrobinson-bradshaw-hinson
p1615
aVjonathan-miller
p1616
aVlegal
p1617
aVpenvine
p1618
aVnicolas-lavrov-studio
p1619
aVrecruitment-advertising-agency
p1620
aVrowland-agency
p1621
aVaviary
p1622
aVss-g
p1623
aVcarbon-reduction
p1624
aVdocument-management
p1625
aVenergy-tracking
p1626
aVenergy-monitoring
p1627
aVenergy-budgeting
p1628
aVclimate-change-levy
p1629
aVdark-side-management-systems
p1630
aVandy-mohan
p1631
aVmatch2blue
p1632
aVhdfc-bank
p1633
aVbrandly-ab
p1634
aVsetterwalls
p1635
aVroofing-contractors
p1636
aVphase-2-solutions-llc
p1637
aVfurniture-store
p1638
aVprolific-interactive
p1639
aVcommercialization-reactor
p1640
aVinternet-video
p1641
aVinstiller
p1642
aVcare-resource-2
p1643
aVfrancesca-coutts
p1644
aVfoley-lardner-3
p1645
aVartech-law
p1646
aVdipadova
p1647
aVjim-marshall
p1648
aVbeeware-gmbh
p1649
aVvocal
p1650
aVwsgr-2
p1651
aVcashedge
p1652
aVadam-zagaris
p1653
aVharden-partners
p1654
aVodesk
p1655
aVserviced-offices
p1656
aVplug-and-play-offices
p1657
aVoffice-space-on-rent
p1658
aVmeeting-rooms
p1659
aVbusiness-centre
p1660
aVwebmarketerz-com
p1661
aVdominik-field-hyde
p1662
aVnuvault-financial
p1663
aVchai-tea-marketing
p1664
aVspot-strategies
p1665
aVlifeway-web-marketing
p1666
aVextreme-seo-internet-solution
p1667
aVcw3pr
p1668
aVfotokem
p1669
aVprana-studios
p1670
aVwdc
p1671
aVmaruti-suzuki
p1672
aVtimes-of-india
p1673
aVpaycorp
p1674
aVinfobip
p1675
aVbeepsend
p1676
aVroute-sms
p1677
aVsofort
p1678
aVnextlayer
p1679
aVbrandl-talos-attorneys-at-law
p1680
aVtpa-horwath
p1681
aVschnherr-attorneys-at-law
p1682
aVintovps
p1683
aVsatyen-bose-science-club-buet
p1684
aVbangladesh-biggan-jonopriyokoron-somiti
p1685
aVmouthpiece-communications
p1686
aVdimoso
p1687
aVblackswan-media
p1688
aVpregnancy
p1689
aV72-equity
p1690
aVtizuni
p1691
aVlegal-medical-records-entry
p1692
aVbusiness
p1693
aVowens-accountants
p1694
aVcarpet-cleaning-westlake-village
p1695
aVcarpet-cleaning-dublin
p1696
aVphoenix-online-media
p1697
aVignite-social-media
p1698
aVberlin-promotion-agency
p1699
aVjim-tobin
p1700
aVrobert-f-murray
p1701
aVhoweltech
p1702
aVholmgren-mitton-lc
p1703
aVgarage-door-repair-isla-vista
p1704
aVgarage-door-repair-gurnee
p1705
aVgarage-door-repair-natick
p1706
aVgarage-door-granite-bay
p1707
aVgarage-door-newcastle
p1708
aVnovaplas-architectural-products
p1709
aVmusic-jobs
p1710
aVlooking-for-musicians
p1711
aVmusicians-wanted-abroad
p1712
aVmynewsdesk
p1713
aVabbe-alejandro
p1714
aVgarage-door-chelmsford
p1715
aVd-custom
p1716
aVgardere-wynn-sewell-llp
p1717
aVsipr
p1718
aVwrightimc
p1719
aVreal-staffing
p1720
aVnetoda-internet
p1721
aVnetoda-bv
p1722
aVb2b-solutions
p1723
aVi-netsolution-com
p1724
aVi-netsolution
p1725
aVglen-l-kulik
p1726
aVbellavia-blatt-andron-crossett-pc
p1727
aVgarage-door-placerville
p1728
aVgarage-door-repair-homestead
p1729
aVblack-label
p1730
aVgarage-door-repair-altadena
p1731
aVgarage-door-repair-brockton
p1732
aVsingly
p1733
aVm-ali
p1734
aVayaz-ahmad
p1735
aVforecast-advertising
p1736
aVinvestment
p1737
aVgarage-doors-repair-lisle
p1738
aVgarage-door-repair-reading
p1739
aVsquare-1-bank
p1740
aVmetzger-associates
p1741
aVtequity-capital-and-communications
p1742
aVofferte-fastweb
p1743
aVtobii-technology
p1744
aVgarage-door-repair-braintree
p1745
aVgarage-door-repair-chelsea
p1746
aVstandish-management
p1747
aVair-duct-cleaning-glendale
p1748
aVair-duct-cleaning-garden-grove
p1749
aVcrocuss-web
p1750
aV4-life-research
p1751
aVdragonknight-advisors
p1752
aVtag-digital
p1753
aVbiris-goran
p1754
aVfastnet-sa
p1755
aVgarage-door-repair-farmingdale
p1756
aVgarage-door-repair-tolleson
p1757
aVgarage-door-opener-tigard
p1758
aVgarage-door-repair-valley-center
p1759
aVdesignscape
p1760
aVindian-video-gamers
p1761
aVprudential-norms-on-education-sector
p1762
aVbeantown-media-ventures
p1763
aVnr7
p1764
aVcarpet-cleaning-hoffman-estates
p1765
aVcarpet-cleaning-barrington
p1766
aVshopping
p1767
aVwsi-we-simplify-the-internet
p1768
aVknockknock-factory
p1769
aVcooley-llp-2
p1770
aVzulfiqar-motors-co-ltd-japan
p1771
aVvanessa-budah-pr
p1772
aVgarage-door-repair-danvers
p1773
aVgarage-door-repair-san-pablo
p1774
aVmamun-molla
p1775
aVlocalinternetmarketing-mobi
p1776
aVcommunique-pr
p1777
aVblu-sky
p1778
aVeks-h
p1779
aVyesvideo
p1780
aVoppenheimer
p1781
aVlocksmith-la-canada-flintridge
p1782
aVlocksmith-canyon-country
p1783
aVrbw-networks
p1784
aVlaszlolaw
p1785
aVdhx-advertising
p1786
aVprnewswire
p1787
aVpress-release-monkey
p1788
aVarketi
p1789
aVmyfirstipadapp
p1790
aVpotters-superstore
p1791
aVferrari-insurance
p1792
aVus-commercial-service
p1793
aVhispanic-chamber-of-commerce-silicon-valley
p1794
aVventure-greenhouse
p1795
aVrhp-right-hand-partners
p1796
aVqb3-ucb-uscs-ucsf
p1797
aVgate
p1798
aVihub
p1799
aVcalifornia-governors-office-of-business-and-licensing-development
p1800
aVaxcel-law-partners-llp
p1801
aVvoyager-capital
p1802
aVheritage-bank
p1803
aVlaunch-pad
p1804
aVsonoma-mountain-business-cluster
p1805
aVenvironmental-business-cluster
p1806
aVdyn
p1807
aVair-duct-cleaning-azusa
p1808
aVair-duct-cleaning-lakewood
p1809
aVemerald-isle
p1810
aVsteven-thrasher
p1811
aV10clouds
p1812
aVpathwright
p1813
aVlocksmith-tujunga
p1814
aVagent
p1815
aVus-garage-doors-wilsonville
p1816
aVlansons-communications
p1817
aVmccormick-paulding-huber
p1818
aVair-duct-cleaning-forest-hill
p1819
aVair-duct-cleaning-bonney-lake
p1820
aVbusiness-intelligence-software
p1821
aVsucurity-and-authentication-modules
p1822
aVbpm
p1823
aVveronica-velilla-wiesner
p1824
aVaddison-marketing
p1825
aVreal
p1826
aVcarpet-cleaning-bolingbrook
p1827
aVcarpet-cleaning-roanoke
p1828
aVjames-a-italia
p1829
aVbruce-e-methven
p1830
aVairfoil
p1831
aVrulli-advogados-associados
p1832
aVkolbeco
p1833
aVcarpet-cleaning-southside-place
p1834
aVcarpet-cleaning-arlington
p1835
aVwebrevolve-ltd
p1836
aVwebrevolve-international-ltd
p1837
aVcarpet-clean-sausalito
p1838
aVcarpet-cleaning-bartlett
p1839
aVcarpet-cleaning-benbrook
p1840
aVsecurity-services
p1841
aVcarpet-clean-campbell
p1842
aVrobert-cowan
p1843
aVellahie-farooqui-llp
p1844
aVcarpet-bainbridge-island
p1845
aVimonomy-interactive
p1846
aVgo-social-israel
p1847
aVwww-quanta-his-com
p1848
aVwww-maxim-lis-com
p1849
aVmanufacturing
p1850
aVcarpet-cleaning-channelview
p1851
aVcarpet-cleaning-franklin-park
p1852
aVcognizant
p1853
aVgarage-door-sacramento
p1854
aVlyncros
p1855
aVair-duct-cleaning-thousand-oaks
p1856
aVgarage-door-repair-sherwood
p1857
aVdrain-line-cleaning
p1858
aVcipp-pipe-lining
p1859
aVtrenchless-sewer-repair
p1860
aVhydro-jetting
p1861
aVprofitbricks
p1862
aVcloudflare
p1863
aVaditya-hosting
p1864
aVlocksmith-moreno-valley
p1865
aVlocksmith-irvine
p1866
aVair-duct-cleaning-irving
p1867
aVair-duct-cleaning-carol-stream
p1868
aVcarpet-cleaning-6
p1869
aVmarketing-maven
p1870
aVkastner-huggins-reddien-gravelle-llp
p1871
aVgarage-door-repair-brentwood
p1872
aVgarage-door-repair-northridge
p1873
aVpr-soundhound-com
p1874
aVcarpet-cleaning-libertyville
p1875
aVcarpet-cleaning-schaumburg
p1876
aVcarpet-cleaning-south-pasadena
p1877
aVcarpet-granada-hills
p1878
aVcarpet-cleaning-reseda
p1879
aVcarpet-cleaning-west-hills
p1880
aVmcandrews-held-malloy
p1881
aVsilicon-valley-financial-group
p1882
aVtrent-company
p1883
aVagent-of-change
p1884
aVjudd-branding
p1885
aVgarage-door-repair-jericho
p1886
aVgarage-door-repair-ramona
p1887
aVdrupal-web-development
p1888
aVpsd-to-drupal-conversion
p1889
aVdrupal-ecommerce
p1890
aVdrupal-migration
p1891
aVtechnology-asset-management-services-and-information
p1892
aVappraisal-and-valuation-services
p1893
aVtablet-presses
p1894
aVequipment-auctions
p1895
aVappraisal-services
p1896
aVtechnology-asset-management-information
p1897
aVbusiness-card
p1898
aVsocial-media-page
p1899
aVillustration
p1900
aVpostcard
p1901
aVbanner-ad
p1902
aVmagazine-cover
p1903
aVflash-banner
p1904
aVhugo-rane
p1905
aVhosting-raja
p1906
aVmckracken-associates
p1907
aVfirst-republic-bank
p1908
aVmagazine
p1909
aVpolsinelli-shughart-llp
p1910
aVkc-connections
p1911
aVrusty-monkey
p1912
aVyves-bhar-fuse-project
p1913
aVdla-piper-palo-alto
p1914
aVgarage-door-service-santee
p1915
aVjohnston-tax-group
p1916
aVclarke-modett-co
p1917
aVcooper-dunham
p1918
aVparexel-international
p1919
aVpanagene
p1920
aVmoorfields-pharmaceutical
p1921
aVgarage-door-service-northlake
p1922
aVlocksmith-spanaway
p1923
aVcarpet-cleaning-monrovia
p1924
aVcarpet-cleaning-portola-valley
p1925
aVburroughs-day
p1926
aValpha-financials
p1927
aVgarage-doorrepair
p1928
aVmedical-billing
p1929
aVmedical-coding
p1930
aVdigitalmist-ltd
p1931
aVla-contabilidade
p1932
aVmiguel-neto-e-herrera-advogados
p1933
aVgreen-beauty-creation
p1934
aVgarage-door-repair-boynton-beach
p1935
aVgarage-door-repair-northbrook
p1936
aVnetcel
p1937
aVandreas-manthey
p1938
aVbullfight-strategies
p1939
aVgarage-door-repair-studio-city
p1940
aVtabware
p1941
aVasset-management
p1942
aVair-duct-cleaning-coronado
p1943
aVair-duct-cleaning-galena-park
p1944
aVseo-services-uk
p1945
aVweb-hosting-service
p1946
aVfacebook-page-design
p1947
aVcarroll-burdick-mcdonough
p1948
aVasdfsadf
p1949
aVautomatic-garage-door-repair
p1950
aVgarage-door-repair-shorline
p1951
aVpaul-smith
p1952
aVmedia-buying-and-planning
p1953
aVinternet-marketing
p1954
aVliving-to-win-corporation
p1955
aVgunder-com
p1956
aVmckibben-media
p1957
aVwindows-azure
p1958
aVuservoice
p1959
aVemployment-contractor-services-ecs
p1960
aVnorth-shore-media-company
p1961
aVunaxus
p1962
aVbluechilli
p1963
aVschox-llc
p1964
aVrubens-nunnemaker
p1965
aVreinhart-boerner-van-deuren
p1966
aVthompson-greenspon-co
p1967
aVdolphin-micro
p1968
aVvisual-effects
p1969
aVweb-videos
p1970
aV3d-video
p1971
aVmedia-buying
p1972
aVconcepting
p1973
aVproducing-tv-commercials
p1974
aVdirect-response-commercials
p1975
aVfeature-films
p1976
aVlive-events
p1977
aVconnect-marketing
p1978
aVherbst-kinski
p1979
aVcooley
p1980
aVaccustart
p1981
aVhttp-www-pepperwoodpartners-com
p1982
aVoutsourcing-programming-services
p1983
aVby-the-sea-communications
p1984
aVneal-gerber-eisenberg
p1985
aVhypepotamus
p1986
aVsengrid
p1987
aVcarpet-cleaning-sierra-madre
p1988
aVweb-design-service
p1989
aVwebsite-promotion-3
p1990
aVweb-hosting-2
p1991
aVweb-design-service
p1992
aVwebsite-promotion-3
p1993
aVweb-hosting-2
p1994
aVtonight-atlanta
p1995
aVfull-circle-pr
p1996
aVcircle-graphics
p1997
aVnations-photo-lab
p1998
aVjewelry-buyers
p1999
aVbaker-mckinzey
p2000
aVbusiness-wire-india
p2001
aVkarasik-law-group
p2002
aVknock-twice
p2003
aVpervasive
p2004
aVtiara-consulting
p2005
aVcuker-interactive
p2006
aVemerald-code
p2007
aVcascade-designs
p2008
aVweb-advanced
p2009
aVprocessing-point
p2010
aVprotolabs
p2011
aVshopify
p2012
aVfunerals-service
p2013
aVahnlab-hackshield
p2014
aVwiselogic-xtrap
p2015
aVcompareprepaid-co-uk
p2016
aVfast-forward-advisors
p2017
aVmonkey-pickles
p2018
aVinbound-digital-marketing
p2019
aVasset-tags
p2020
aVcustom-asset-tags
p2021
aVmetal-asset-tags
p2022
aVasset-labels
p2023
aVeconomy-asset-labels
p2024
aVtamper-evident-asset-tags
p2025
aVsparxoo
p2026
aVcherona-works
p2027
aVjerusalem-startup-hub
p2028
aVakshay
p2029
aVmagid-media-labs
p2030
aVweiler-rees
p2031
aVassembld-inc
p2032
aVmystro
p2033
aVsan-jose-state-university-research-foundation
p2034
aVrocketspace
p2035
aVcornish-carey-commercial
p2036
aVe-m-mayock-associates
p2037
aVfour-seasons
p2038
aViactive
p2039
aVpetrinovich-pugh-company
p2040
aVsan-francisco-relocate
p2041
aVsan-jose-airport-garden-hotel
p2042
aVworkforce-matters
p2043
aVbridge-bank
p2044
aVtobin-tobin
p2045
aVblue-host
p2046
aVepipheo
p2047
aVgaug-es
p2048
aVnational-positions
p2049
aVpershing
p2050
aVmerritt-merritt-moulton
p2051
aVattido
p2052
aViphone-game-development
p2053
aVlinhart-public-relations
p2054
aVlinda-macdonald-glenn
p2055
aVzvd-media
p2056
aVsearch-engine-marketing
p2057
aVaffiialte-marketing
p2058
aVsocial-media-marketing
p2059
aVbusiness-analysis
p2060
aVstartup-consulting
p2061
aVoffshore-staffing
p2062
aVcustom-web-development
p2063
aVmobile-web-and-app-development
p2064
aVfacebook-application-development
p2065
aVfusion-pro-development
p2066
aVasp-aspx-net-html-xhtml-flash-to-html5-conversion
p2067
aVcms-web-development
p2068
aVe-commerce-solutions
p2069
aVthe-imagists
p2070
aVliberty-photo-products
p2071
aVamplitude-technologies
p2072
aVhttp-transformagency-reviews-com
p2073
aVtrade-associations
p2074
aVair-sea-road-freight-carriers
p2075
aVvirtual-financial-directors
p2076
aVtax-planning
p2077
aVcorporate-finance
p2078
aVauditing-and-accountancy
p2079
aVfilm-accounting
p2080
aVbusiness-ecommerce
p2081
aVuk-subsidiaries-of-foreign-companies
p2082
aVforensic-accounting
p2083
aVhealthcare-accounting
p2084
aVcharities-accounting
p2085
aVmanagement-information-services
p2086
aVproperty-investment-companies
p2087
aVpearl-cohen-zedek-latzer
p2088
aVhi-tech-outsourcing-services
p2089
aVjenn-halweil
p2090
aVgravity-given-productions
p2091
aVlocksmith1
p2092
aVuninterruptible-power-supply
p2093
aVepstein-becker-green
p2094
aVinvoke-labs
p2095
aVinvoke-media
p2096
aVlabarge-weinstein-llp
p2097
aVdimitrov-petrov-and-co
p2098
aVthe-content-factory
p2099
aVevan-michael-hess-esq
p2100
aVmacias-gini-oconnell-llp
p2101
aVketpress-media
p2102
aVlages-associates
p2103
aVcreative-lipi
p2104
aVruben-benitez
p2105
aVthreadneedle
p2106
aVharvey-nash
p2107
aVconvertro
p2108
aVtheisen-bowers-associates-llc
p2109
aVdynamics-hosting
p2110
aVpanovia
p2111
aVlocksmith2
p2112
aVcoronado-garage-door-repair
p2113
aVtouchtech-limited
p2114
aVkallam-and-associates
p2115
aVtencent
p2116
aVplayphone
p2117
aVfacebook-ads
p2118
aVlocksmith-valley-center
p2119
aVdoor-repair
p2120
aVgarage-doors
p2121
aVclipping-path
p2122
aVludis-media
p2123
aVgarage-door-repair-conroe
p2124
aVgarage-door-repair-carson
p2125
aVgarage-door-repair-saugus
p2126
aVmarble-tiles-exporter
p2127
aVgranite-suppliers
p2128
aVsandstone-suppliers
p2129
aVgarage-door-repair-services
p2130
aVgarage-door-repair-service
p2131
aVair-duct-cleaning-el-monte
p2132
aVlocksmith-university-place
p2133
aVgarage-door-repair-stoneham
p2134
aVningsih
p2135
aVgarage-door-repair-flowery-branch
p2136
aVgarage-door-repair-compton
p2137
aVair-duct-cleaning-west-hills
p2138
aVcentric-consulting
p2139
aVeducational-software
p2140
aVseomark
p2141
aVsophos-law-firm
p2142
aVgarage-door-repair-bremerton
p2143
aVgarage-door-co-issaquah
p2144
aVjacquie-pirnie
p2145
aVdoor-repairs
p2146
aVgarage-doors-repairs
p2147
aVgarage-door-repair38
p2148
aVgarage-door-repair87
p2149
aVgarage-door-repair-seabrook
p2150
aVgarage-door-repair-pelham
p2151
aVlocksmith-sun-valley
p2152
aVlocksmith-gardena
p2153
aVbarbara-kocot-ilka
p2154
aVcloosy-internet
p2155
aVgarage-doors-repair
p2156
aVcarpet-cleaning-5
p2157
aVpitmans
p2158
aVair-duct-cleaning-temple-city
p2159
aVair-duct-cleaning-cypress
p2160
aVcarpet-cleaning-van-nuys
p2161
aVcarpet-cleaning-beverly-hills
p2162
aVgarage-door-repair-and-service-provider
p2163
aVkilpatrick-townsend-stockton-llp
p2164
aVjodie-cohen-communications
p2165
aVshenhav
p2166
aVlawson-weitzen
p2167
aVhttp-www-titleseo-com-article-submission-service-php
p2168
aVhttp-www-titleseo-com-social-bookmarking-service-php
p2169
aVcrockett-crockett-pc
p2170
aVhertz-lichtenstein-media-law
p2171
aVhaber-corp-certified-public-accountants
p2172
aVtopspin-media
p2173
aVeventful
p2174
aVsix-payment-services
p2175
aVexperian
p2176
aVgb-group
p2177
aVcall-credit
p2178
aVair-duct-cleaning-chatsworth
p2179
aVair-duct-cleaning12
p2180
aVair-duct-cleaning11
p2181
aVgarage-door-repair-shirley
p2182
aVgarage-door-repair-rancho-cordova
p2183
aVgoodman-derrick-llp
p2184
aVlocksmith-service
p2185
aVcarpet-cleaning-woodinville
p2186
aVcarpet-cleaning-malibu
p2187
aVthe-communications-store
p2188
aVtractenberg-co
p2189
aVtnt
p2190
aVlocksmith-calabasas
p2191
aVlocksmith-granada-hills
p2192
aVsorinrand
p2193
aVbeing-paris-tbwa-group
p2194
aVmorningstar-advisory-paris
p2195
aVgarage-doors-repair-bolingbrook
p2196
aVgrupo-mobi
p2197
aVrice-communications
p2198
aVnextdc
p2199
aVnetapp
p2200
aVhttp-goarticles-com-article-important-features-of-xhtml-development-7300789
p2201
aVlori-bush-shepard
p2202
aVsparke-helmore
p2203
aVthe-corporate-law-group
p2204
aVseiler-llp
p2205
aVdobler-law-group
p2206
aVlee-petros
p2207
aVcarpet-cleaning-mercer-island
p2208
aVwithumsmith-brown-pc
p2209
aVcommercial-carpet-cleaning
p2210
aVcarpet-cleaning-rugs
p2211
aVimpressions
p2212
aVgarage-door-repair-banning
p2213
aVgarage-door-repair-elk-grove
p2214
aVcontinente-siete
p2215
aVviawest
p2216
aVpaperkite-research-technology
p2217
aVapartotels
p2218
aVricoh
p2219
aVgarage-door-repair-cave-creek
p2220
aVgarage-door-repair-commerce
p2221
aVcarpet-cleaning-4
p2222
aVmerchant-accounts
p2223
aVcredit-card-processing
p2224
aVwireless-credit-card-processing
p2225
aVonline-payment-processing
p2226
aVgarage-door-repair55
p2227
aVgarage-door-repair05
p2228
aVblakely-sokoloff
p2229
aVmoderne-press
p2230
aVtapjoy-flurry
p2231
aVrooster-pr
p2232
aVair-duct-cleaning-san-marino
p2233
aVgarage-door-repairs-3
p2234
aVkwittken-company
p2235
aVzag-interactive
p2236
aVwoothemes
p2237
aVlocksmith-chatsworth
p2238
aVwordpress-customization
p2239
aVwordpress-plugin-development
p2240
aVbooking-com
p2241
aVmappibiz
p2242
aVair-duct-cleaning-playa
p2243
aVmy-llc
p2244
aVlocksmiths
p2245
aVlocksmith23
p2246
aVlocksmith0012
p2247
aVmarc-law-associates
p2248
aVcrystal-reports-consultant
p2249
aVfoxpro-consultant
p2250
aVspartan-law
p2251
aVgarage-door-repair-lake-worth
p2252
aVgarage-door-repair2
p2253
aVcarpet-cleaning-anaheim
p2254
aVrobinson-bradshaw-and-hinson-p-a
p2255
aVsandman-studios
p2256
aVuno-red
p2257
aVplatinum-league
p2258
aVward-damon-and-posner
p2259
aVthe-deal-shop
p2260
aVknownhost
p2261
aVkatie-fish
p2262
aVunwire-marketing
p2263
aVcommunications-consortium
p2264
aVsymantec-2
p2265
aVgeotrust
p2266
aVthawte
p2267
aVcomodo
p2268
aVrapidssl
p2269
aVaegis
p2270
aVbrown-smith-wallace
p2271
aVrandy-smith
p2272
aVdamion-robinson
p2273
aVjames-hotson
p2274
aVrandal-schwartz
p2275
aVnew-york-startup-lab
p2276
aVgarage-door-repair-4
p2277
aVlouisville-social-management
p2278
aVsiavage-law-group
p2279
aVrfhws-law
p2280
aVfashion-photography
p2281
aVevent-photography
p2282
aVwedding-photography
p2283
aVcustom-photography
p2284
aVretouching-services
p2285
aVzep-solar
p2286
aVmounting-systems
p2287
aVeverest-k-2
p2288
aVsolar-bos
p2289
aVmulti-contact
p2290
aVtyco
p2291
aVamphenol
p2292
aVwieland
p2293
aVsolar-log
p2294
aVkaco
p2295
aVsolectria-renewables
p2296
aVfronius
p2297
aVenphase-energy
p2298
aVcanadian-solar
p2299
aVet-solar
p2300
aVrenesola
p2301
aVphono-solar
p2302
aVtalesun
p2303
aVeoplly
p2304
aVvalentin-software
p2305
aVrennsteig
p2306
aVseaward
p2307
aVsma-america
p2308
aVsolaredge
p2309
aVseo-firm
p2310
aVmediatemple-2
p2311
aVdenise-tayloe-privo
p2312
aVbeth-feldman-beyond-pr
p2313
aVjeffrey-johnson-pryor-cashman
p2314
aVreborn-webs
p2315
aVindia-internets
p2316
aVrossiterandco
p2317
aVair-duct-cleaning-alhambra
p2318
aVair-duct-cleaning-marina-del-rey
p2319
aVmorris-yorn-barnes-levine-krintzman-rubenstein-kohner-p-c
p2320
aVcrier-communications-inc
p2321
aVazion
p2322
aVhostdime
p2323
aVshibolet-co
p2324
aVstripe
p2325
aVbytesize-digital-marketing-company
p2326
aVzo-creative
p2327
aVcarson-boxberger
p2328
aVdigital-intent
p2329
aVreadypulse
p2330
aVipage
p2331
aVpakhomov-game-publishing
p2332
aVubiquity-servers
p2333
aVwils
p2334
aVmouse-and-man
p2335
aVlucidiom
p2336
aVwww-moreslides-com
p2337
aVfirst-american-tax-defense
p2338
aVreduce-irs-tax-debt
p2339
aVsmartbridge
p2340
aVweb-based-charting-software
p2341
aVtechnical-software-analysis
p2342
aVmarketing-analysis
p2343
aVnovy-pr
p2344
aVmasterbase
p2345
aVsnapengage
p2346
aVlaunch-memphis
p2347
aVcotman-ip
p2348
aVbastion
p2349
aVbryan-hwang
p2350
aVnorton-rose
p2351
aVbackground-checks
p2352
aVnovation-mobile
p2353
aVthe-top-floor-agency
p2354
aVorr-reno
p2355
aVamsca-boat-rental-dubai
p2356
aVfunnelbox-studios
p2357
aVinventa-capital-plc
p2358
aVthelift
p2359
aVbuddle-findlay
p2360
aVeli-kirk
p2361
aVpr-marketing
p2362
aVnexcess-net
p2363
aVquemedia
p2364
aVdaniel-brouse
p2365
aVgood-good-seo
p2366
aVloyens-loeff
p2367
aVexpedition-pr
p2368
aVrocket-lawyer-incorporated-rocketlawyer-com-tm
p2369
aVpranit-banthia
p2370
aVhi-tech-ito
p2371
aVbaer-crossey
p2372
aVmaguire-hegarty
p2373
aVmediabase-direct-ltd
p2374
aVapplied-brilliance-ltd
p2375
aVjamtopia
p2376
aVandromedia
p2377
aVsuki-co-il
p2378
aVemarkepedia
p2379
aVfmc
p2380
aVsymbiosis-search
p2381
aVfacebook-ticketing
p2382
aVbox-office-pos
p2383
aVbarcode-scanning
p2384
aVmobile-ticketing
p2385
aVcarpet-cleaning-lynnwood
p2386
aVmediaparts-interactive
p2387
aVpulse-advisory
p2388
aVwinogradsky-and-sobel
p2389
aVkaufman-and-canoles
p2390
aVwindow-coverings
p2391
aVwebsite-developers-uk
p2392
aVair-duct-cleaning-long-beach
p2393
aVbilly-the-group
p2394
aVmontepio-bank
p2395
aViapmei
p2396
aVportugal-telecom
p2397
aVsage
p2398
aVedit
p2399
aVlocksmith-in-studio-city
p2400
aVcemas
p2401
aVlunarpixels
p2402
aVjustinthesouth-com
p2403
aVlocksmith-los-angeles
p2404
aVcarpet-cleaning-services
p2405
aVfabiani-lehane
p2406
aVwebsoup
p2407
aVlocksmith-3
p2408
aVlocksmith-2
p2409
aVhotel
p2410
aVoutdoor-signage
p2411
aVbranding
p2412
aVstationary
p2413
aVbrochures
p2414
aVbanners
p2415
aVq4pr
p2416
aVronan-daly-jermyn
p2417
aVoconnor-ip
p2418
aVdrywall-repair-2
p2419
aVdrywall-repair
p2420
aVshared-hosting
p2421
aVsable-accounting
p2422
aVban-accounting-network
p2423
aVorganik-design
p2424
aVpixel-mesh
p2425
aVonline-tutoring
p2426
aVfirematter
p2427
aVnabarro-law
p2428
aVlocksmith-santa-monica
p2429
aVcarpet-cleaning-simi-valley
p2430
aVair-duct-cleaning-santa-monica
p2431
aVair-duct-cleaning-2
p2432
aVthe-pabulum-group
p2433
aVadvisa
p2434
aVlocatelli-sc
p2435
aVgodfrey-kahn
p2436
aVwebb-communications
p2437
aVlime5
p2438
aVbts-legal
p2439
aVttnet
p2440
aVpinchro
p2441
aVswapond
p2442
aVtry-celtrixa
p2443
aVventure-accelerator-partners
p2444
aVpr-web
p2445
aVcarpet-cleaning-lake-stevens
p2446
aVcarpet-cleaning-pleasanton
p2447
aVsanjeevani-wellness
p2448
aVcarpet-cleaning-company
p2449
aVcarpet-cleaners-3
p2450
aVinfocircle
p2451
aVlouis-treiger
p2452
aVstephan-taieb
p2453
aVcarson-mcdowell
p2454
aVjohn-mcmahon-and-co
p2455
aVkitdigital
p2456
aVrichards-rodriguez-skeith-llp
p2457
aVhemingway-hansen-llp
p2458
aVpsb-integrated-marketing
p2459
aVdesk-com
p2460
aVcarpet-cleaning-91604
p2461
aVcarpet-cleaning-canoga-park
p2462
aVcarpet-cleaning-bellevue
p2463
aVdsprel
p2464
aVmeteor-pr
p2465
aVboilingpoint-group
p2466
aVcarpet-cleaning-3
p2467
aVgarage-door-opener-2
p2468
aVkiller-innovations
p2469
aVjihane-teretal
p2470
aVwolfgreenfield
p2471
aVmurray-tech-law
p2472
aVcome-recommended
p2473
aVsullivan-cromwell-llp-3
p2474
aVclayton-utz
p2475
aVdevore-demarco-llp-park-avenue-new-york-ny
p2476
aVplastical
p2477
aVdesigns-by-veridian
p2478
aVself-clouding
p2479
aVmobile-web-server
p2480
aVcorvus
p2481
aVescape-studio
p2482
aVnatro
p2483
aVblog-promotion
p2484
aVdesign
p2485
aVgarage-door-repair1
p2486
aVlaser-surgery
p2487
aVenterprise-db
p2488
aVprolore-search-marketing
p2489
aVparking-stickers
p2490
aVleather-bags
p2491
aVarment-dietrich
p2492
aVsearch-concepts
p2493
aVtyan
p2494
aVraritan
p2495
aVd-link-2
p2496
aV3ware
p2497
aVseagate
p2498
aVamd
p2499
aVkingston
p2500
aVfashion-snoops
p2501
aVs-i
p2502
aVteknokrasi
p2503
aVsadecehosting
p2504
aVdenizbank
p2505
aVyurtici-kargo
p2506
aVgaragedoor-repair
p2507
aVpillsbury
p2508
aVfederated-media
p2509
aVmississippi-technology-alliance
p2510
aVgarage-door
p2511
aVosborn-maledon
p2512
aVkeats-mcfarland-wilson
p2513
aVthrace-graphistes-conseil-inc
p2514
aVonline-flipbook
p2515
aVvirtual-tour
p2516
aV3d-video-walkthrough
p2517
aVcommercial-photography
p2518
aVreal-estate-virtual-tour
p2519
aVmorgan-lewis-3
p2520
aVaql
p2521
aV1and1-hosting
p2522
aVstreak-crm
p2523
aVopusvl
p2524
aVsullivan-cromwell-llp
p2525
aVgarage-door-repair
p2526
aVdanny-martin
p2527
aVthv-pr
p2528
aVbest-advantedge-inc
p2529
aVbest-advantedge
p2530
aVsourcebit
p2531
aVmobius
p2532
aVtheoria-it
p2533
aVpersonal-injury-law
p2534
aVnextiva
p2535
aVharrison-shriftman-public-relations
p2536
aVmorrison-kent
p2537
aVingrammicro
p2538
aVuptec
p2539
aVmeritxell-alavedra
p2540
aVgarage-dorr-repair
p2541
aVspreaker
p2542
aVtax-legal
p2543
aVbeaconcpa
p2544
aVfirefly-pr
p2545
aVlegal-services
p2546
aVtoronto-airport-limo-flat-rate-inc
p2547
aVexults
p2548
aVmiami-printing-fl
p2549
aVtechnologie-coaching-center
p2550
aVinvestitionsbank-berlin
p2551
aVbrandl-cermak
p2552
aVsan-diego-bigdata-developer
p2553
aVwsi
p2554
aVweather-central
p2555
aVwdt
p2556
aVdoapp
p2557
aVbaron-services
p2558
aVap-enps
p2559
aVcloud-computing
p2560
aVcompeller
p2561
aVjohnson-prichard-fee
p2562
aVgrassi-company
p2563
aV180-communications
p2564
aVadam-g-heffner-attorney
p2565
aVpoke-new-york
p2566
aVsaper-law-offices-llc
p2567
aVidea-international-digital-entertainment-agency
p2568
aVzoga
p2569
aVnew-venture-support
p2570
aVupright-marketing
p2571
aVhendry-warren-llp
p2572
aVfaber-daeufer-itrato-cabot-pc
p2573
aVeverlight-capital
p2574
aVthe-westmont-group
p2575
aVkaren-hart-marketing
p2576
aVphantasie-manufaktur
p2577
aVannie-jennings-pr
p2578
aVprofessional-packers-and-movers
p2579
aVhighwinds
p2580
aVhinshaw
p2581
aV247rack
p2582
aVmagnify-communications
p2583
aVandriessen-associates
p2584
aVmars-dd
p2585
aVoz
p2586
aVid-est-avocats
p2587
aVstorm-preparation
p2588
aVtravelstart
p2589
aVferroconcrete
p2590
aVinfowise
p2591
aVleapfrog-interactive
p2592
aVbench-pr
p2593
aVturms-advisors
p2594
aVthe-conversation-co
p2595
aVefa
p2596
aVadepa
p2597
aVtheisen-law
p2598
aVagentur-frische-fische
p2599
aVhost-europe
p2600
aVharrison-edwards
p2601
aVbeale-and-company
p2602
aVburnet-duckworth-palmer-llp
p2603
aVweiss-brown
p2604
aV36ty-solutions
p2605
aVheather-e-miles-esq
p2606
aVknp-labs
p2607
aVacbmedia
p2608
aVintel
p2609
aVmaersk
p2610
aVrenexel-inc
p2611
aVvarious
p2612
aVevsoft
p2613
aVinzeit
p2614
aVborders-gratehouse
p2615
aVbraintree
p2616
aVchachatravel
p2617
aVwebsite-design-melbourne
p2618
aVnerds-on-call
p2619
aVopening-new-paris-office
p2620
aVdatapipe-2
p2621
aVbase-one
p2622
aVfortech
p2623
aVcoyne-pr
p2624
aVflextronics-international
p2625
aVrr-donnelley
p2626
aVbrodeur-partners
p2627
aVmindson-marketing
p2628
aVfix-protocol
p2629
aVbrach-eichler
p2630
aVharac-consulting
p2631
aVashley-sievewright-solicitors
p2632
aVomar-diaz
p2633
aVverifone
p2634
aVingenico
p2635
aVy-media-labs
p2636
aVlewis-silken
p2637
aVcrashworks
p2638
aVpoin
p2639
aVstephen-c-durant
p2640
aVinduslaw-partners
p2641
aVvalue360-communications
p2642
aVreactor15
p2643
aVsunpower
p2644
aVglispa-gmbh
p2645
aVevergent-technologies
p2646
aVfound
p2647
aVecombuffet-com
p2648
aVdimitriou-law
p2649
aVbig-l-solutions
p2650
aVsocially-pr
p2651
aVbinary-tree-it-solution
p2652
aVvmw-public-relations-llc
p2653
aVsemantic-advantage-inc
p2654
aVwilson-sonsini-goodrich-rosati-2
p2655
aVazx-professional-group
p2656
aVkathy-polias-esq
p2657
aVyoung-company
p2658
aVha-w
p2659
aVtechcxo
p2660
aVsoftlayer-2
p2661
aVgullet-sanford-robinson-martin-pllc
p2662
aVproud-lion-design
p2663
aVriggs-davie-pllc
p2664
aVteknetex
p2665
aVgoodwin-procter-llp-2
p2666
aVjill-salzman
p2667
aVmadrid-emprende
p2668
aVashmanov-partners
p2669
aVxero
p2670
aVsencha
p2671
aVtether-inc
p2672
aV3points-communication
p2673
aVzwembadpompen
p2674
aVzandfilters
p2675
aVemerson-gerard-pr
p2676
aVmodern-luxury-media-group
p2677
aVstrategy-global-business-development
p2678
aVcabinet-moutard
p2679
aVdeloitte-corporate-finance
p2680
aVtwenty-twenty-partners
p2681
aVlive-dvd-rentals
p2682
aVjet-cooper
p2683
aVmalta-entreprise
p2684
aVchevalier-scialies-luxembourg
p2685
aVglobal-seven-agency
p2686
aVemerson-gerard
p2687
aVbox
p2688
aVs-wimpfheimer-aronoff-co-law-office
p2689
aVchevalier-scialies
p2690
aVcornerstone-ondemand
p2691
aVm-paget
p2692
aVpr-savvy
p2693
aVsocialmediastrategist
p2694
aVjoaquin-roca
p2695
aVsteel-interactive
p2696
aVprlog-com
p2697
aVfree-press-release-com
p2698
aVseo-consultor
p2699
aVdiseo-web
p2700
aVchris-burton
p2701
aVcreative-agency-gong
p2702
aVvijaya-kumar
p2703
aVvstock-transfer
p2704
aVleverage-pr
p2705
aVimagination-inc
p2706
aVchetcuti-cauchi-malta
p2707
aVsoftcompass
p2708
aVheads-up
p2709
aVcwy-marketing
p2710
aVridell-williams
p2711
aVifx
p2712
aVhakverdi-tourism
p2713
aVcommins-knudsen
p2714
aVenoch-evans
p2715
aVthemis-chambers
p2716
aVickovics-neustadter-clark-sabag-co
p2717
aVwenner-avocats
p2718
aVfirst-online-solutions
p2719
aVlucidity
p2720
aVdarling-milligan-smith-lesch-pc
p2721
aVlaff-campbell-tucker-gordon-llp
p2722
aVconceptpr
p2723
aVeyeflow-internet-marketing
p2724
aVmessage-infusion-llc
p2725
aVcatalyst-global-llc
p2726
aVlido-tax-consulting
p2727
aVlavin-lofgren-morris-engleburg
p2728
aVcheap-international-calling
p2729
aVorangestudio
p2730
aVwayra
p2731
aVdlonra
p2732
aVpno-consultants
p2733
aVsts-capital
p2734
aVvia-agio
p2735
aVpulse-finance
p2736
aVposicionamientowebenbuscadores
p2737
aVwonderproxy
p2738
aVpr-newswire-2
p2739
aVhybridge-it
p2740
aVpeppermint-p
p2741
aVbtjd
p2742
aVpamil-visions-pr
p2743
aVseoplus
p2744
aVfidor-bank-ag-2
p2745
aVcreditreform-e-v
p2746
aVtimbox
p2747
aVpacnet
p2748
aVtelstra
p2749
aVvocus
p2750
aVpipe-networks
p2751
aVdigital-river-networks
p2752
aVaptravision-infotech
p2753
aVtim-books
p2754
aVtim-shot
p2755
aVwyrick-robbins-yates-ponton-llp
p2756
aVicon-tech-consulting-inc
p2757
aVsri-durga-enterprises
p2758
aVemporis-software-solutions
p2759
aVcritical3-marketing
p2760
aVlime-creek-marketing
p2761
aVthompson-patent-law
p2762
aVzebra-deluxe
p2763
aVmendes-barreto-souza-leite
p2764
aVroar-media
p2765
aVbilzin-sumberg
p2766
aVconzalta
p2767
aVthinkcircleinc
p2768
aVpodio
p2769
aVhutchison-pllc
p2770
aVdecisionpoint
p2771
aVlaser-hair-removal
p2772
aVbotox-treatment
p2773
aVskin-care-treatment
p2774
aVchemical-peel
p2775
aVlaser-rejuvenation
p2776
aVlip-injection
p2777
aVfriendscan-me
p2778
aVflow20
p2779
aVblueprint-law
p2780
aVrobinson-cole-llp
p2781
aVgigenet
p2782
aVhttp-www-golfdom-digital-com-golfdom-201112-pg20
p2783
aVhttp-www-golfdom-digital-com-golfdom-201111-pg35
p2784
aVhttp-www-superintendentmagazine-com-article-7585-aspx-highlight-seeing-20is-20believing
p2785
aVajay-jhunjhunwala
p2786
aVmanaging-partners
p2787
aVopinno
p2788
aVswayve
p2789
aVfaceaddicted
p2790
aVshea-communications
p2791
aVh3o
p2792
aVengeman-company
p2793
aVhovey-williams
p2794
aVpr-com-2
p2795
aVkarvy-solutons
p2796
aVwhite-summers-caffee-james-llp
p2797
aVs-b-marketing-inc
p2798
aVyellow-bridge-interactive
p2799
aVhosta-papa
p2800
aVmailshimp
p2801
aVconner-interactive
p2802
aVgrant-hansen
p2803
aVmatias-okeefe
p2804
aVmhealth-alliance
p2805
aVbest-seo-company
p2806
aVshine-legal
p2807
aVben-jen-online-llc
p2808
aVsynergy-transcription-services
p2809
aVmesserpr
p2810
aVpressler-collaborative
p2811
aVseneschal
p2812
aVsalans
p2813
aVeverlution-software-ltd
p2814
aVmike-lincoln-cooley-llp
p2815
aVshanghai-bo-chen-business-consulting-co-ltd
p2816
aVhutch
p2817
aVmobitel
p2818
aVetisalat
p2819
aVade-co
p2820
aVduboff-edward-haight
p2821
aVaikins-macaulay-thorvaldson-llp
p2822
aVboston-seo-consulting
p2823
aVhermesbagoutlet-org
p2824
aVboughton-law
p2825
aVminter-ellison
p2826
aVswayve-public-relations
p2827
aVone-chocolate-communications
p2828
aVthe-seed-studio
p2829
aVnetsuite-inc
p2830
aVnewton-software
p2831
aVsymmetry
p2832
aVk-l-gates-2
p2833
aVweb-site-designing
p2834
aVprint-design
p2835
aVnotary-public
p2836
aVcloudnine-pr
p2837
aVposter-lieder-woodruff-lucchesi-l-c
p2838
aVventure-counsel
p2839
aVpillsbury-winthrop-shaw-pittman-llp
p2840
aVadmarvel
p2841
aVyogesh
p2842
aVrobert-lovett
p2843
aVmatthew-myers
p2844
aVinstapp
p2845
aVspecific-media
p2846
aVvideology
p2847
aVconvonix
p2848
aVcolibris-design-and-communications
p2849
aVscad-media-llc
p2850
aVslapapp-com
p2851
aVstommel-law-group
p2852
aVbingham-mccutchen
p2853
aVwebweb
p2854
aVkel-and-partners
p2855
aVsterling-media
p2856
aVthamestraveluk
p2857
aVfrumatic
p2858
aVlittle-jacket
p2859
aVbdo-llp
p2860
aVstate-farm-insurance
p2861
aVjars-infotech-pvt-ltd
p2862
aVwintercorn
p2863
aVlindquist-vennum
p2864
aVpitch-engine
p2865
aVadap-tv
p2866
aVyume
p2867
aVjuice-digital
p2868
aVwebimax
p2869
aVtrainer-communications
p2870
aVcobalt-llp
p2871
aVzendesk-3
p2872
aVolark
p2873
aVgloscon-solutions-pvt-limited
p2874
aValakmalak-technologies
p2875
aVbohra-shah-and-associates
p2876
aVkeyur-j-shah-associates
p2877
aVcallaway-pr
p2878
aVgross-hartman-llc
p2879
aVportal-front-hosting
p2880
aVclive-reeves-pr
p2881
aVintrepid-labs
p2882
aVcpmarketing
p2883
aVpr
p2884
aVloeb-loeb
p2885
aVflynn-ip-law
p2886
aVcarlton-fields
p2887
aVthompson-dorfman-sweatman-llp
p2888
aVdarren-heitner-esq
p2889
aVjames-oconnell
p2890
aVhayzlett
p2891
aVpaul-norman-swains-plc
p2892
aVthrings
p2893
aVbishop-fleming
p2894
aVnorthbank
p2895
aVmedivendis-de-agentur-fr-gesundheitsmarketing
p2896
aVfluct
p2897
aVjaguar-pr
p2898
aVaccumuli-software
p2899
aValcatel-lucent
p2900
aVallot-communications
p2901
aVarcsight
p2902
aVblue-coat
p2903
aVcheck-point
p2904
aVcisco-control-products
p2905
aVcisco-security-products
p2906
aVjuniper-networks
p2907
aVlogrhythm
p2908
aVpalo-alto-networks
p2909
aVporttracker
p2910
aVsonicwall
p2911
aVsourcefire
p2912
aVwebscreen-technology
p2913
aVmobile-money
p2914
aVjobs-africa
p2915
aVsms
p2916
aVtravel
p2917
aVsheppard-mullin-richter-hampton-llp
p2918
aVthunder-11
p2919
aVmorgan-lewis-2
p2920
aVandrea-kalli
p2921
aVatss
p2922
aVrodyk-co
p2923
aValbertz-associates-cpa-llc
p2924
aVwood-lamping-llp
p2925
aVprivate-label
p2926
aVimport-export
p2927
aVfull-circle-communications
p2928
aVdacast
p2929
aVbender-helper-impact
p2930
aVcloudigy-law
p2931
aVcmh-associates
p2932
aVfresh-egg-ltd
p2933
aVthe-ault-firm-inc
p2934
aValbertdhand-llp
p2935
aVpepper-hamilton-llp
p2936
aVsemple-fraser
p2937
aVthewayoftheweb-ltd
p2938
aVcps-creative
p2939
aVvidaao
p2940
aVvitor-lindo
p2941
aVdigital-envy
p2942
aVemail-marketing-software
p2943
aVmarketing-ppc
p2944
aVdiseo-web-en-wordpress
p2945
aVdiseo-de-apps-mviles
p2946
aVinstalacin-y-configuracin-de-google-apps
p2947
aVmvkoen-tv-video-lecciones-en-lnea
p2948
aVapostol-virtual-assistance
p2949
aVjohn-ireland-co
p2950
aVjob-ads-24
p2951
aVcamara-sibley
p2952
aVrankability-ltd
p2953
aVwhiteoaks
p2954
aVcontent-marketing
p2955
aVyour-office-agent
p2956
aVkhrg
p2957
aVcbiz
p2958
aVmercury-digital-agency
p2959
aVpwc-legal
p2960
aVblowfish-digital
p2961
aVfugenx-technology
p2962
aVkevin-wheeler
p2963
aVevolution-bureau
p2964
aVkelly-fogelman-group
p2965
aVheidi-roizen
p2966
aVbrownstein-hyatt-farber-schreck
p2967
aVsurfmedia
p2968
aVthe-plumtree-group
p2969
aVnovacodex
p2970
aVlanchner-communications
p2971
aVreitler-kailas-rosenblatt-llc
p2972
aVeleius-marketing
p2973
aVlanchner-communication
p2974
aValtima
p2975
aVaction-packed-media
p2976
aVmad-mimi
p2977
aVdigital-ocean
p2978
aVfounder-institute
p2979
aVone-atomik-marketing-solutions-inc
p2980
aVguidance
p2981
aVcorporate-tax-network
p2982
aVadp
p2983
aVshakespeares
p2984
aVbirmingham-science-park-aston
p2985
aVtimedoctor
p2986
aVblastmedia
p2987
aVkitchen-pr
p2988
aVcerub-pr
p2989
aVpnc-bank
p2990
aVpnc
p2991
aVfemida
p2992
aVpacket-house-it-solutions
p2993
aVfletcher-law-firm
p2994
aVa-rothschild-public-relations
p2995
aVjones-walker-waechter-poitevent-carrre-dengre-l-l-p-2
p2996
aVgodotyourself-com
p2997
aVadverserve
p2998
aVbettina-elstroth
p2999
aVberkley-communications
p3000
aVtimes-resumes
p3001
aVdklm
p3002
aVfrau-wenk
p3003
aVcreative-anvil
p3004
aVclear-marketing-communications
p3005
aVprinceton-partners
p3006
aVsides-media
p3007
aVborden-perlman
p3008
aVwiss-and-co
p3009
aVbbc
p3010
aVelavon
p3011
aVincparadise
p3012
aVshipito
p3013
aVjones-walker-llp
p3014
aVtax-assist-uk
p3015
aVdempsey-law-office
p3016
aVjones-walker
p3017
aVloop-group-marketing
p3018
aVmedia-mindshare-mms-communications-ltd
p3019
aVphp-kitchen-planner
p3020
aVengagepoint
p3021
aVindian-prwire
p3022
aVelliot-davis-pc
p3023
aVsquarable
p3024
aVdc3
p3025
aVvortex-communications
p3026
aVhedgeco-websites
p3027
aVbeam
p3028
aVslipstreambi
p3029
aVbrand-new-world
p3030
aVbreakaway-communications
p3031
aVsales-international-marketing
p3032
aVdefine-your-edge
p3033
aVwang-hartmann-gibbs-cauley-p-c
p3034
aVunknownlab
p3035
aVbayardo-rivera
p3036
aVsearch-fanatics
p3037
aVhouse-of-kaizen
p3038
aVautomatique
p3039
aVdefined-publishing
p3040
aVlevonsys
p3041
aVroman-y-asociados
p3042
aVcalsamiglia-abogados
p3043
aVkerman-co
p3044
aVgiorgio-bocchieri
p3045
aVfor-to-do
p3046
aVhooper-honore
p3047
aValliance-global
p3048
aVpostlewaite-netterville
p3049
aVpatton-boggs-llp
p3050
aVjohns-walker
p3051
aVmaddin-hauser-wartell-roth-heller-p-c
p3052
aVchocolate-pr
p3053
aVsetaris-corporation
p3054
aVnetcologne
p3055
aVquest
p3056
aVroi-dna
p3057
aVryley-carlock-applewhite
p3058
aVmiller-cooper-ltd
p3059
aVjanine-gordon-associates
p3060
aVmazeberry
p3061
aVmultitop-accountants
p3062
aVkirby-pr
p3063
aVmakeway4
p3064
aVbret-clement
p3065
aVthe-ultimate-choice-of-people-custom-bumper-stickers
p3066
aVsent-concepts
p3067
aVprezence-digital
p3068
aVproudly-represents
p3069
aVpan-communications-boston
p3070
aVgoldenhill-international-m-a-advisors
p3071
aVmahmood-jabbar-khan
p3072
aVsnapterms
p3073
aVwww-pagodabox-com
p3074
aVdrawbackwards
p3075
aVparallel-communications-group
p3076
aVchili-pepper-productions
p3077
aVfirecrackerpr
p3078
aVmet-law
p3079
aVnutter-mcclennen-fish
p3080
aVcoinside
p3081
aV68-interativa
p3082
aVbouncing-pixel
p3083
aVacmefish
p3084
aVlorance-thompson
p3085
aVhouston-technology-center
p3086
aVpiramide-comunicacin
p3087
aVfippex
p3088
aVchatwee
p3089
aVjohn-walker-cpa
p3090
aVbeucler-creative-services
p3091
aVweb-reputation-builders-3
p3092
aVwaves-pr
p3093
aVhealthcare-it-services
p3094
aVreal-estate-brokerage
p3095
aVfresh-biz-marketing
p3096
aVinternational-venture-consultants-ivc
p3097
aVtime6ix-media
p3098
aV2tangos
p3099
aVtraining-free-software-technologies
p3100
aVsupport
p3101
aVauditory
p3102
aVconsultory
p3103
aVmigration-to-linux
p3104
aVinfrastructure-virtualization
p3105
aVedwards-wildman
p3106
aValexander-aronson-finning
p3107
aVgreen-machine-pr
p3108
aVmoving2vancouver
p3109
aVhttp-candorrecruitmentgroup-com
p3110
aVhttp-www-recruitmentagenciesinpakistan-com
p3111
aVhttp-candorrecruitmentgroup-blogspot-com
p3112
aVoomphagency
p3113
aVbrandspeak
p3114
aVwhoosh-pr
p3115
aVmiles-pierce
p3116
aVyormick-and-associates
p3117
aVkevan-tidy
p3118
aVdyke-yaxley-llc
p3119
aVstudentsarea
p3120
aVmiles-a-harris-esq
p3121
aVthe-new-agency
p3122
aV4d-datacentres
p3123
aVcripps-harries-hall
p3124
aVglow
p3125
aVavante-hosting
p3126
aVmillenium-systems
p3127
aVvestibule-marketing
p3128
aVfugu
p3129
aVblankspaces
p3130
aVambrose-employer-group
p3131
aVbigmanbakes
p3132
aVlori-s-hoberman
p3133
aVkevin-cronin
p3134
aVnetcarrier-systems
p3135
aVthe-cline-group
p3136
aVmypromovideos-2
p3137
aVsusan-kerschbaumer
p3138
aVcleverbridge
p3139
aVdoreen-clark
p3140
aVwhite-case-2
p3141
aVdebt-placement
p3142
aVfinancial-restructuring
p3143
aVdebt-syndication
p3144
aVswanson-bratschun
p3145
aVpraveen
p3146
aVmanish-arora
p3147
aVshawn-hazen
p3148
aVtavistock
p3149
aVventraip
p3150
aVharry-ford
p3151
aVheydary-hamilton
p3152
aVludvik-partners
p3153
aVshinka
p3154
aVpondering-panda
p3155
aVrocky-mountain-innosphere
p3156
aVwheeler-k-neff
p3157
aVnevada-agency-and-transfer-company
p3158
aVmotorola
p3159
aVecopetrol
p3160
aVsanju-thakur
p3161
aVseoprofiler
p3162
aVgocardless
p3163
aVstock-tips
p3164
aVcommodity-tips
p3165
aVmcx-tips
p3166
aVmarketing-berkshire
p3167
aV4040-agency
p3168
aVthe-antenna-group
p3169
aVpranger-law-group
p3170
aVlunchpr
p3171
aVladas-and-parry
p3172
aVglobal-one
p3173
aVabn-amro-2
p3174
aVceoadvisors-us
p3175
aVon-deck-capital-2
p3176
aVpearl-capital-2
p3177
aVaccion-usa-2
p3178
aVftt-finance-co
p3179
aVpse-inc
p3180
aVkgfa-capital
p3181
aVinversores-de-centroamerica
p3182
aVsocial-media-wizard
p3183
aVromo-paills-s-c
p3184
aVflat-square-tech-group
p3185
aVcsg-pr
p3186
aVrethink
p3187
aVwsgr-com
p3188
aVgreg-blake
p3189
aVulmer-berne
p3190
aVhow-to-successfully-run-a-core
p3191
aVtopspot-ims
p3192
aVastor-group
p3193
aVskyview-wireless
p3194
aVsimple-mobile
p3195
aV7d-interactive
p3196
aVspunk-design
p3197
aVbandicoot-search
p3198
aVtom-mahon
p3199
aVthinkorange
p3200
aVnormajean
p3201
aVweb-maintenance
p3202
aVplanet-pr
p3203
aVbunnenberg-bertram-rechtsanwlte
p3204
aVnetconstructor-com
p3205
aVhello-fi
p3206
aVepson-philippines
p3207
aVcanon-philippines
p3208
aVrebornmafia
p3209
aVlakeman-peagler-hollett-alsobrook-llc
p3210
aVbevis-eberhart-browning-walker-stewart-p-c
p3211
aVkrush-creative
p3212
aVtivoli-storage-manager
p3213
aVcloud-computing-services
p3214
aVdisaster-recovery-solutions
p3215
aVvirtualization-solutions
p3216
aVseo-company-sydneyhttp-www-vilson-com-au
p3217
aVwebsite-design-sydney
p3218
aVe-commerce-website-design
p3219
aVcarr-ferrell-2
p3220
aVpadiact-2
p3221
aVrefferalcandy
p3222
aVhellobar
p3223
aVeisneramper
p3224
aVrinaldi-communication-marketing
p3225
aVfamous-folks
p3226
aVyour-money-matters
p3227
aVkatz-bloom-schon-cpas
p3228
aVlevine-associates
p3229
aVsofer-haroun
p3230
aVwalker-sands-communications
p3231
aVcarrillo-asesores
p3232
aVvenable-llp
p3233
aVmichael-p-fortkort
p3234
aVspyderlynk
p3235
aVlocaid
p3236
aVspire-media
p3237
aVtremend-software
p3238
aVomnitel
p3239
aVai-interactive
p3240
aVbarry-spalding-laywers
p3241
aVdeutsche-bank
p3242
aVinternetx
p3243
aVdomainindex-com
p3244
aVinsane-crayon-llc
p3245
aVmichael-sheldon-reed-design
p3246
aVtravelpr
p3247
aVkritnu-it-solutions
p3248
aVonshore-media
p3249
aVonshore-media
p3250
aVnorthstar
p3251
aVvfm-leonardo
p3252
aVtechnologypr
p3253
aVcarpathia
p3254
aVjh-cohen
p3255
aVschox-plc
p3256
aVmediaworks-online-marketing
p3257
aVedesign-bg
p3258
aVhapoalim
p3259
aVmax-zehavi
p3260
aVcar2go
p3261
aVjones-and-watkins
p3262
aVbump-networks
p3263
aVvarela-legal
p3264
aVmedia65-europe
p3265
aVicr
p3266
aVims-consulting-group
p3267
aVoptuminsight
p3268
aVpharmerit-international
p3269
aVpdci
p3270
aVtranslucency
p3271
aVsynergus
p3272
aVrampup-it
p3273
aVthe-internet-works
p3274
aVsearch-engine-optimization
p3275
aVhayes-lango
p3276
aVspindogs
p3277
aVnworks-technologies-llc
p3278
aVnewme
p3279
aV3b-digital
p3280
aVlarry-studnicky-iii
p3281
aVjason-kuhns
p3282
aVbrooke-miller-design
p3283
aVartyllect-consulting
p3284
aVhttp-geniebazaar-wordpress-com-2010-09-26-genie-bazaar-local-services
p3285
aVatomic-pr-milyoni-atomicpr-com
p3286
aVtwocents-group
p3287
aVchocolate-agency
p3288
aVcrisp-branding
p3289
aVrailsware
p3290
aVtrevelino-keller-communications-group
p3291
aVnetconstructor
p3292
aVsimmons-simmons
p3293
aVevents
p3294
aVlink-trust
p3295
aVomnicom-media-group
p3296
aVmorais-leito
p3297
aVcodex
p3298
aVwidgilabs
p3299
aVcrunch-accounting
p3300
aVpillsbury-winthrop-shaw-pittman
p3301
aVobizm-services
p3302
aVmishcon-de-reya
p3303
aVintuit-2
p3304
aVinteractive-lion
p3305
aVhasoffers
p3306
aVzebra-print-and-market
p3307
aVincubaid-com
p3308
aVlocal-seo
p3309
aVteracode-2
p3310
aVarvixe-llc
p3311
aVwhois
p3312
aVscanlife
p3313
aVlacore
p3314
aVliberty-communications
p3315
aVglobal-results-2
p3316
aVreed-smith
p3317
aVgtc-law-gropu
p3318
aVsherpa-web-studios
p3319
aVthree
p3320
aVmiller-brooks
p3321
aVredline-company
p3322
aVseo-services-spain
p3323
aVpowers-abodados
p3324
aVhumdev-com
p3325
aVload-impact
p3326
aVmkr-group-inc
p3327
aVsimple-union-interactive
p3328
aVthe-mechanism-llc
p3329
aVlansons
p3330
aVsmall-business-services-krog-st-atlanta-ga
p3331
aVmosaic-publicity
p3332
aVwebmatrix-technology
p3333
aVbeachfleischman-pc
p3334
aVfalcon-multi-services-ltd
p3335
aVseven-star-tours
p3336
aVtulsi-impex-ltd
p3337
aVakholidays-in
p3338
aVadvaion
p3339
aVseed-technologies
p3340
aVbeyond-it-solutions
p3341
aVgkh-law-offices
p3342
aVuexpert
p3343
aVthreadbird
p3344
aVwebb-and-company-pa
p3345
aVschneider-weinberger
p3346
aVmedl-mobile-inc
p3347
aVfowler-good-llp
p3348
aVutopia-communications
p3349
aVcmds
p3350
aVzeno-seo
p3351
aVleif-parker-new-meidaworks
p3352
aVcambridge-innovation-center-2
p3353
aVleif-parker-new-mediaworks
p3354
aVspny-interactive
p3355
aVmitral-valve-repair
p3356
aVkulesa-faul
p3357
aVsteinbrchel-hssy
p3358
aVmembrain
p3359
aVmass-technology-leadership-council
p3360
aVaccenture
p3361
aVbinaria
p3362
aVnewmans-accountants-and-business-consultants
p3363
aVrose-communications
p3364
aVloreli-alviz-consulting
p3365
aVout-from-the-crowd-marketing
p3366
aVburen-van-velzen-guelen
p3367
aVpark-lane-consultants
p3368
aVwfia
p3369
aVlyman-pr
p3370
aVtry-no-agency
p3371
aVdepenning
p3372
aVbriskin-cross-and-sanford
p3373
aVtech-cxo
p3374
aV25-pixels-media
p3375
aVledlight
p3376
aVscripted
p3377
aVarmstrong-watson
p3378
aVirc
p3379
aVgoogle-adwords-2
p3380
aVauspient-inc
p3381
aVeastwick
p3382
aVrobby-birunbaum
p3383
aVx-verify
p3384
aVbrite-verify
p3385
aVbrian-lustig
p3386
aVstrict-coding
p3387
aVworry-free-labs
p3388
aVdh-capital
p3389
aVkcomm
p3390
aVlebrecht-group
p3391
aVincubes
p3392
aVweil-gotshal-manges-llp
p3393
aVgoodwin-procter-llp
p3394
aVparker-smith-feek
p3395
aVprimus-communication
p3396
aVnetflix-2
p3397
aVthe-mallett-group
p3398
aVglobal-flight
p3399
aVcobb-digital
p3400
aVpaul-savident
p3401
aVdavenport-lyons
p3402
aVactive-profile
p3403
aVsmbg-llc
p3404
aVjordan-s-zoot-cpa-p-c
p3405
aVmarketo-llc
p3406
aVtaggart-hawkins
p3407
aVgagnier-margossian
p3408
aVashleyit
p3409
aValadinanuncios-com
p3410
aVjoanna-roses-consulting
p3411
aVrasel
p3412
aVwilliam-fry
p3413
aVcheopspv
p3414
aVdesignarte
p3415
aVandrew-whitmore
p3416
aVpuebliredes
p3417
aVdotsub
p3418
aVcotweet
p3419
aVcodebase
p3420
aVcompete
p3421
aVasana
p3422
aVcorinth-group
p3423
aVsnapbill
p3424
aVcoed
p3425
aVlancea-partners
p3426
aVemerald-media
p3427
aVmercer-hole
p3428
aVgordon-rees-llp
p3429
aVflashpoint-gt
p3430
aVzag-communications
p3431
aVgive10
p3432
aVconessione-advertising
p3433
aVelkins-elkins
p3434
aVgenco-atc-supply-chain-solutions
p3435
aVelearning
p3436
aVlearning-management-systems
p3437
aVcompliance-courses
p3438
aVthe-yocca-law-firm
p3439
aVmadison-alexander-public-relations
p3440
aVericsson-3
p3441
aVoracle
p3442
aVparkyeri
p3443
aVpennebaker
p3444
aVtania-lopez
p3445
aVliliana-lopez
p3446
aVthe-bradford-group
p3447
aVproprietary
p3448
aVwebair
p3449
aVcantos
p3450
aVlemongrass-communications
p3451
aVparente-beard
p3452
aVrock-health
p3453
aVadler-vermillion-skocilich
p3454
aVsocialradius
p3455
aVoo-co
p3456
aVhipchat
p3457
aVgosquared
p3458
aVshamin-abas-public-relations
p3459
aVmemset
p3460
aVfootprint-technologies
p3461
aVrayo-strategic-partners
p3462
aVadam-lawler
p3463
aVcarlos-tanner
p3464
aVflabbergast-design
p3465
aVdigital-reality-inc
p3466
aVdigital-reality-llc
p3467
aVthe-matthews-firm
p3468
aVauspient
p3469
aVconsolidated-press-release
p3470
aVmovers24seven-com
p3471
aVwordpress-theme-development
p3472
aVwordpress-development
p3473
aVjackson-walker-llp
p3474
aVwolf-haldenstein-adler-freeman-herz-llp
p3475
aVgoingo
p3476
aVcozen-oconnor
p3477
aVrosen-harwood
p3478
aVconversion-optimisation
p3479
aVreputation-management
p3480
aVcleverscale
p3481
aVvietnam-travel
p3482
aVvietnam-tours
p3483
aVvietnam-visa
p3484
aVvietnam-hotels
p3485
aVel-taller
p3486
aVwordpress-4
p3487
aVseo-moz
p3488
aVtd-bank
p3489
aVcitrus-media-group
p3490
aVaxia-payments
p3491
aVpotomac-web-design
p3492
aVcreare-comunications
p3493
aVjulie-york
p3494
aVandroid-phone-design
p3495
aVsonda
p3496
aVbootcamp-ventures
p3497
aVlemberg
p3498
aVyeskin-co
p3499
aVavinoam-menda
p3500
aVnetlings
p3501
aV56th-command-ltd
p3502
aVrally-software
p3503
aVvmware
p3504
aVthinkmate
p3505
aVvan-doorne
p3506
aVcrmworks
p3507
aVcrmworks-limited
p3508
aVneal-mcdevitt
p3509
aVmasters-associates-limited
p3510
aVmika-marquart-director-of-athlete-marketing
p3511
aVdeanay-morris-licensing
p3512
aVsteven-leach-lawyer-partner
p3513
aVbrent-kilner-owner
p3514
aVdiyseo
p3515
aVhubert-moik
p3516
aVexcellprint-promotions
p3517
aVgastown-labs
p3518
aVtrojan-law-office
p3519
aVboza-consultores
p3520
aVblaise-law-firm
p3521
aVtaylorwessing
p3522
aVmindshare-pr
p3523
aVbabl-media
p3524
aVhotel-graphics
p3525
aVsmartt
p3526
aVtech-fort-worth
p3527
aVsartain-pc
p3528
aVpardot
p3529
aVmokshwrts
p3530
aVmutual-benefits
p3531
aVlbmc
p3532
aVdodson-parker-behm-capparella
p3533
aVmetamarketer
p3534
aVworldwide-networks-consultancy-limited
p3535
aVvantage-communications
p3536
aVjumpstart-global-advisors
p3537
aVcaren-west-pr
p3538
aVitverse
p3539
aVporter-simon
p3540
aVressourcenreich
p3541
aVcontent-writing-services
p3542
aVbest-seo-services-company
p3543
aVbulldog-webdesign
p3544
aVcustom-development
p3545
aVtsys-merchant-solutions
p3546
aVams-advertising
p3547
aVsakshay-web-technologies
p3548
aVcalling-cards
p3549
aVphone-cards
p3550
aVinternational-calling-cards
p3551
aVwalker-law-group
p3552
aVmorrissey-company
p3553
aVdan-klores-communications
p3554
aVoptic-nerve
p3555
aVspiral-moon-media
p3556
aVdrupal-development
p3557
aVetilize
p3558
aVdelorum
p3559
aVmobizest
p3560
aV3t-interactive
p3561
aVintegrated-project-management-company-ipmc
p3562
aVbodygard31
p3563
aVd-cloudconsulting
p3564
aVhong-kong-cyberport
p3565
aVfloriep-renggli-attorney
p3566
aVmicrosoft-bizspark
p3567
aVbob-butterworth
p3568
aVgreenough-communications
p3569
aVchilid-lpp
p3570
aVhost-net
p3571
aVcorsis
p3572
aVbelieve
p3573
aVn-e-w-s
p3574
aVdaredo
p3575
aVzebralution
p3576
aVfuga
p3577
aVfinetunes
p3578
aVintergroove
p3579
aVword-and-sound
p3580
aVmade-in-etaly
p3581
aVepm
p3582
aVgroove-attack
p3583
aVkontor
p3584
aVbusiness-booster
p3585
aVlark-it
p3586
aVbnqt
p3587
aV9apps
p3588
aVmicro-jobs
p3589
aVexploring-macedonia
p3590
aVbaker-donelson-pc
p3591
aV100tb-com
p3592
aVquantcast
p3593
aVpingdom
p3594
aVgeckoboard
p3595
aVserverdensity
p3596
aVtillman-wright
p3597
aVhouston-web-design
p3598
aVmcinnes-cooper-2
p3599
aVclickpoint-software
p3600
aVhighered-growth
p3601
aVswingtree-creative
p3602
aVskeleton-design
p3603
aVmedia-interchange
p3604
aVconstant-contact-3
p3605
aVmobiinteractive-com
p3606
aVhandshake-media
p3607
aVparallel-communications
p3608
aVtransideation-p-c
p3609
aVcustomer-strategy-network
p3610
aVrewardstream
p3611
aVcampbell-law-group
p3612
aVbig-hassle-media
p3613
aVmatt-gersib
p3614
aVevolvetechnologies
p3615
aVmeetweb
p3616
aVnazar-horbach
p3617
aVemployment
p3618
aVjobs-in-egypt
p3619
aVrecruitment
p3620
aVmason-hayes-curran-2
p3621
aVsinnott-hughes-co
p3622
aVb-s-promotion-gbr
p3623
aVcd-seo
p3624
aVidea-code
p3625
aVoutplay-media
p3626
aVideolo-proximity-marketing-agency
p3627
aVmcmanus-tourism-communications
p3628
aVmobidigger-inc
p3629
aVja-poure-associates
p3630
aVinmedia-public-relations
p3631
aVstrongpoint-public-relations
p3632
aVdm-media
p3633
aVoberhausen-marketing-pr
p3634
aVvantage-barter-exchange
p3635
aVcarolina-premier-bank
p3636
aVmorningstar-ministries
p3637
aVus-success-center
p3638
aVihn-productions
p3639
aViamas-corporation
p3640
aVnetworld-inc
p3641
aVdesignabolic-inc
p3642
aVa-1-technology-inc
p3643
aVbriggs-and-morgan
p3644
aVhandpicked-media
p3645
aVpr-pundit
p3646
aVtughans
p3647
aVstargsm
p3648
aVthe-oxford-group
p3649
aVgravity-seo
p3650
aVscience-and-technology-park-of-university-of-porto
p3651
aVconsultations
p3652
aVproperty-management
p3653
aVmarket-analysis
p3654
aVleasing
p3655
aVresidential-services
p3656
aVtotal-web-integration
p3657
aVdecisive-flow
p3658
aVnew-tradition
p3659
aVpiton-advisors-llc
p3660
aVbank-of-america
p3661
aVneff-law-firm
p3662
aVsocal-ip
p3663
aVplan-to-start
p3664
aVcammp
p3665
aVest-empresa-servios-tcnicos
p3666
aVvisual-translations
p3667
aVcabe
p3668
aVtotbits-solutions
p3669
aVnido-marketing
p3670
aVidology-inc
p3671
aVstoel-rives-llp
p3672
aVnavitor
p3673
aVconsulting
p3674
aVonline-sas
p3675
aVrodan-co
p3676
aVwebex
p3677
aVthe-idea-grove
p3678
aVchaordix
p3679
aVhotel-marketing-group
p3680
aVagence-pourquoi-pas-moi
p3681
aVsami-dob
p3682
aVprof-dr-sebastian-krause
p3683
aVprof-dr-eric-frere
p3684
aVjovoto
p3685
aVconnectwise
p3686
aVkurtz-fargo-llp
p3687
aVsunstein-kann-murphy-timbers
p3688
aVh-art-wpp
p3689
aVwww-cemreoffset-com
p3690
aVonline-voucher-codes
p3691
aVvelton-zegelman-p-c
p3692
aVgard-kaslow-llp
p3693
aVkustov-associates-inc
p3694
aVdenver-seo
p3695
aVwordplay-content
p3696
aVsimmondsstewart
p3697
aVijw-management
p3698
aVusjobads-com
p3699
aVibeam
p3700
aVinacap
p3701
aVhttp-www-cormant-com-cormant-index-php-news-at-cormant-147-cormant-nextgig-systems-agreement
p3702
aVhttp-www-prweb-com-releases-nextgigsystems-xena-prweb4240434-htm
p3703
aVtinymce
p3704
aVstone-carlie
p3705
aVspoke
p3706
aVgobrandgo
p3707
aVthompson-coburn
p3708
aVdotpr
p3709
aVocean-studio
p3710
aVjanrain
p3711
aVmittenwald
p3712
aVip-exchange
p3713
aVfacebook-2
p3714
aVlinkedin-2
p3715
aVfti-consulting
p3716
aVevolution-securities
p3717
aVmccarter-english-2
p3718
aVcyberfuzion
p3719
aVe-c-lewis-law
p3720
aVbazaarvoice
p3721
aVtonkon-torp
p3722
aVsullivan-hill
p3723
aVtorrey-pines-bank
p3724
aVswain-pr
p3725
aVpayfuzion
p3726
aVinktonersavings
p3727
aVerange-net
p3728
aVkaspersky
p3729
aVstompernet
p3730
aVseo-workers
p3731
aVbeast-marketing
p3732
aVtier-one-partners
p3733
aVbrauti-thorning-zibarras-llp
p3734
aVideo
p3735
aVsamsung-ink
p3736
aVstar-ink
p3737
aVpitney-bowes-ink
p3738
aVxerox-ink
p3739
aVmuch-more
p3740
aVbrother-ink
p3741
aVcanon-ink
p3742
aVepson-ink
p3743
aVkodak-ink
p3744
aVkonica-minolta-ink
p3745
aVlexmark-ink
p3746
aVokidata-ink
p3747
aVapple-ink
p3748
aVaws
p3749
aVamazon-2
p3750
aVsonus-pr
p3751
aVjoshua-pr
p3752
aVtinepublic
p3753
aVe-planning-2
p3754
aVkumpan
p3755
aVport25
p3756
aVelserver-com
p3757
aVvurbia
p3758
aVdoppler
p3759
aVkeboola
p3760
aVkko
p3761
aVnascentpr
p3762
aVhashrocket
p3763
aVchris-barton
p3764
aVflagship-consulting
p3765
aVbraxton-group
p3766
aVnetwork-redux
p3767
aVokin-adams-kilmer
p3768
aVrevolver
p3769
aVthreewide
p3770
aVnine-by-blue
p3771
aVovh
p3772
aVnetwork-solutions
p3773
aVshoora-legal-advisory
p3774
aVwaddey-patterson
p3775
aVthe-gales-network
p3776
aVhttp-betali-st-startups-zivame
p3777
aVtata-communications
p3778
aVpeter-bradley
p3779
aVadam-glass
p3780
aVred-hat
p3781
aVsupermicro
p3782
aVmcafee
p3783
aVmezeo
p3784
aVfedex
p3785
aVusps
p3786
aVups
p3787
aVfidelity-corporate-services-ltd
p3788
aVrubenstein-associates
p3789
aVhttpool
p3790
aVgithub
p3791
aVed-davis
p3792
aVmarca-social-inc
p3793
aVvoltage-creative
p3794
aVsingapura-management
p3795
aVstick-theory
p3796
aVryan-foster-design
p3797
aVkuit-steinart-levy
p3798
aVtangerine-pr
p3799
aVintenational-mold-network-company
p3800
aVhighroad-communications
p3801
aVnetdna
p3802
aVjackson-and-campbell
p3803
aVmodernmessage
p3804
aVedf-communications
p3805
aVsingapure-management
p3806
aVtodd-horn-vp-sales
p3807
aVjason-sikora-ceo
p3808
aVwatkins-meegan
p3809
aVpr-com
p3810
aVstradling-yocca-carlson-rauth
p3811
aVsoixante-seize
p3812
aVtrova-consulting
p3813
aVanimo-events
p3814
aVvisere-inc
p3815
aVeric-jacobson
p3816
aV33seconds
p3817
aVsemcap
p3818
aVmobile-apps
p3819
aVrichard-wolfe-esq
p3820
aVunbounce
p3821
aVinsomniac-development
p3822
aVbeapp
p3823
aVhotfoot-design
p3824
aVdakota-pictures
p3825
aVdone-and-dusted
p3826
aVlayered-tech
p3827
aVspry-agency
p3828
aVmitchell-zuklie
p3829
aVelizabeth-lefever
p3830
aVboxcarcreative
p3831
aVshuffleinteractive
p3832
aVning-2
p3833
aVgrou-ps
p3834
aVthe-carbonneutral-company
p3835
aVasia-image
p3836
aVnovojuris
p3837
aVsapient-nitro
p3838
aVmojotech
p3839
aVmitts-milavec
p3840
aVtk-brand-group-2
p3841
aVkids-stuff-pr-2
p3842
aVmarsh-fischmann-breyfogle-llp
p3843
aVmobile-apps-development
p3844
aVkingston-smith
p3845
aVmybusiness-fd
p3846
aVtrademark-consultants-in-chennai
p3847
aVbe-inspired-pr
p3848
aVcity-job-ads
p3849
aVinventus-law
p3850
aVmercury-labs
p3851
aVturocy-watson
p3852
aVjjo-media
p3853
aVhealth-care-industry-lists-specific-email-lists-technology-email-lists
p3854
aVsharphue
p3855
aVneo-events
p3856
aVmixtur
p3857
aVwebinar-stream
p3858
aVlvt
p3859
aVamerican-rebel-pr
p3860
aVkilpatrick-townsend
p3861
aVmicropayments
p3862
aVgateway
p3863
aVsms-push
p3864
aVknowledgeblue
p3865
aVhelms-workshop
p3866
aVexporter-2
p3867
aVfrontier-financing
p3868
aVclement-communications
p3869
aVkirkpatrick-townsend
p3870
aVinner-circle-labs
p3871
aVfull-creative
p3872
aVterri-seltzer-pllc
p3873
aVblue-nelson
p3874
aVcamille-walker-pllc
p3875
aVthink-pink-pr
p3876
aVal-bean-company
p3877
aVjudr-michal-mandzak
p3878
aVmiller-canfield
p3879
aVss-pr-3
p3880
aVbvp-legal-services
p3881
aVklf-legal
p3882
aVcarney-associates
p3883
aVclark-horner-llp
p3884
aVpalter-mccarthy
p3885
aVsiprut-pc
p3886
aVt-mobile-2
p3887
aVsavvis-2
p3888
aVringcentral
p3889
aVlighthouse
p3890
aVbhimsen-dura
p3891
aVbootcamp-lights
p3892
aVinfoawl
p3893
aVcreologic
p3894
aVclouddata
p3895
aVgarros-group
p3896
aVbadgeville
p3897
aV2checkout-com
p3898
aVwww-leadtunnel-com
p3899
aVexpedia
p3900
aVwcities
p3901
aV2020-accountants-2
p3902
aVip21-2
p3903
aVstreakbuzz-com
p3904
aVbay-business-development-2
p3905
aVpolsinelli-shugart
p3906
aVouterbox-solutions
p3907
aVcipla
p3908
aVranbaxy
p3909
aVpfizer
p3910
aVzydus-cadila
p3911
aVhotperson-com
p3912
aVpixel-soul-creative
p3913
aVcorporate-renegade
p3914
aVelevendy
p3915
aVtelecom-bretagne
p3916
aV3d-fovea
p3917
aVeyes3shut
p3918
aVlatim
p3919
aVliragram
p3920
aVluxr
p3921
aVhostirian
p3922
aVduffy-shanley
p3923
aVtreyz-social-media
p3924
aVzebra-technologies
p3925
aVvero-billing-services
p3926
aVtele2-no
p3927
aVlevitate-media
p3928
aVnewhouse-shey-llp
p3929
aVmichael-burns-associates
p3930
aVhorizon-accounts-limited
p3931
aVleadformix
p3932
aVoffice-of-tech-transfer-university-of-michigan
p3933
aVjra-fiji
p3934
aVpixelcookers
p3935
aVmagnify-consulting
p3936
aVmovement-finance
p3937
aVcredit-agricole
p3938
aVcramer-development
p3939
aVholland-and-hart
p3940
aVmkn-web-solutions
p3941
aVcology-com
p3942
aVjosh-lawler
p3943
aVslate
p3944
aVinformative-computer-solutions
p3945
aVdjangozoom
p3946
aVmarkengold-pr-gmbh
p3947
aVcraig-andrews
p3948
aVpyi
p3949
aVklarna
p3950
aVsprings-hosting
p3951
aVframework
p3952
aVadsmarket
p3953
aVkevin-hand-esq
p3954
aViem-consulting-gmbh
p3955
aVsemantic-press
p3956
aVdevision-by-zero
p3957
aVchobe-mate-associates
p3958
aVcitylegal
p3959
aVmanoranjan
p3960
aVsugarcrm
p3961
aVbishops-accounting
p3962
aVweightmans-llp
p3963
aVregus-plc
p3964
aVprlog
p3965
aVca
p3966
aVallutiiq
p3967
aVboostability
p3968
aVmetova
p3969
aVvgm-technologies
p3970
aVphoenix-strategies
p3971
aVryder-ip-law
p3972
aVmellon-webster-and-shelly
p3973
aVlear-consulting-group
p3974
aVfront-page-communications
p3975
aVdavid-oro
p3976
aVjquery-mobile
p3977
aVencoding-com
p3978
aVprestance-group
p3979
aVhaynes-boone-2
p3980
aVsamantha-gibson-communications
p3981
aVknuckleheads
p3982
aVsimplicityhosting-com-inc
p3983
aVdriven-media-llc
p3984
aVthe-nonproductive-network
p3985
aVjustinfreid-com
p3986
aVvirtual-law-partners
p3987
aVmix-media-solutions
p3988
aVmix-media-solutions-llc
p3989
aVzinosign
p3990
aVgill-jennings-every
p3991
aVxcetra-media
p3992
aVgrayplantmoody
p3993
aVandres-schulz
p3994
aVsmith-williamson
p3995
aVwaterfront-solicitors-llp
p3996
aVbanks-co
p3997
aVpartneroption
p3998
aVogilvy-pr
p3999
aVexeter-signs
p4000
aVpurple-promotions
p4001
aVmotunovu-2
p4002
aVcastren-snellman
p4003
aValto-law-group
p4004
aVvisual-harbor
p4005
aVcloud-web
p4006
aVravix-group
p4007
aVepic-pr-group
p4008
aVberns-communications-group
p4009
aVcambridge-semantics
p4010
aVdemeter-interactive
p4011
aVqrlicious
p4012
aVdouglas-ramler
p4013
aVbenavides-riascos-campo
p4014
aVtrue-north-pr
p4015
aVpalisade
p4016
aVtelecom-italia
p4017
aVequallogic
p4018
aVcompellent
p4019
aVsmartjog
p4020
aVwidgetlabs
p4021
aVgregory-fca
p4022
aVmorning-cactus
p4023
aVchaos-designs
p4024
aVcorecommerce
p4025
aVmagic-solutions
p4026
aVwilson-sonsini-2
p4027
aVfrost-brown-todd
p4028
aVweb-pyro
p4029
aVimpact-law-group
p4030
aV2cs
p4031
aVpier
p4032
aVsaasy
p4033
aVclarity-quest-marketing
p4034
aVmills-force-marketing-group
p4035
aVpappas-group
p4036
aVmotunovu
p4037
aVgdr-productions
p4038
aVshopping-com
p4039
aVcnet-com
p4040
aVnextag-com
p4041
aVdearmon-gulling-agency
p4042
aVir-network
p4043
aVtroutman-sanders
p4044
aVpender-newkirk
p4045
aVmass-media-pet-marketing
p4046
aVflint-bishop
p4047
aVneilsoft
p4048
aVtata-autocomp-systems
p4049
aVvisualsoft
p4050
aVsilicon-edge-law-group
p4051
aVsanli-pastore-hill
p4052
aVon-demand-it-solutions
p4053
aVgeorge-grellas-associates
p4054
aVfetchback
p4055
aVaffiliate-traction
p4056
aVconstant-contact-2
p4057
aVomniture-2
p4058
aVsands-anderson
p4059
aVwireless-expertise
p4060
aVincubate-miami
p4061
aVblast-pr
p4062
aVsilicion-legal-strategy
p4063
aVbrightline
p4064
aVcomtex
p4065
aVbrad-chinn
p4066
aVabbyy
p4067
aVmetatrader-4
p4068
aVwebtrader
p4069
aVkatie-tigges
p4070
aVscott-dahl
p4071
aVevan-larimore
p4072
aVandy-greff
p4073
aVeric-moujaes
p4074
aVmarketing-options
p4075
aVapplied-decision-science
p4076
aVthe-pr-group
p4077
aVsimonic-and-associates
p4078
aVrimon-law-group
p4079
aVdrive-action-digital
p4080
aVsaliva
p4081
aVsunrun
p4082
aVrosa-gmez-acebo
p4083
aVinvictus-law-pc
p4084
aVsage-creek-partners
p4085
aVender-technology-corporation
p4086
aVbishop-dulaney-joyner-llp
p4087
aVstrait-insights-llc
p4088
aVprocess-consulting
p4089
aVbocek-and-associates-cpa
p4090
aVems
p4091
aVmmp
p4092
aVsolveitlabs
p4093
aVbusiness-consulting-group-pvt-ltd
p4094
aVad2one
p4095
aVbertelli-group
p4096
aVthink-pie
p4097
aVgallinger-law
p4098
aVtophatrank-com
p4099
aVportland-portals
p4100
aVsmith-anderson
p4101
aVsommerfield-communications
p4102
aVleo-burnett
p4103
aVshumaker-loop-kendrick
p4104
aVgunster-law-firm
p4105
aVmchale-slavin-p-a
p4106
aValpern-rosenthal
p4107
aVwomble-carlyle
p4108
aVventana
p4109
aVmr-cheai-weng-hoong
p4110
aVoutside-general-counsel-services
p4111
aV3c-web-solutions
p4112
aVevent-management-dubai
p4113
aVsitsols-com
p4114
aVappular
p4115
aVblackbaud
p4116
aVpixel-dust-marketing-llc
p4117
aVverus-resources-llc
p4118
aVsmart-it-solutions
p4119
aVhttp-bluehost-com
p4120
aVhttp-www-bad-neighborhood-com-login-lockdown-html
p4121
aVhttp-creativecommons-org
p4122
aVhttp-wordpress-org
p4123
aVa-a-advertising
p4124
aVsouthard-communications
p4125
aVsnr-denton
p4126
aVteichert-will-rechtsanwlte
p4127
aVschenk-associates-plc
p4128
aVcypress-llp
p4129
aVmodernwise
p4130
aVedelman
p4131
aVintergio-net
p4132
aVcarnegie-no
p4133
aVthe-virtual-assistant
p4134
aVfenero
p4135
aVbidorbuy
p4136
aVbidorbuy-co-za
p4137
aVcitrix
p4138
aVlws
p4139
aVsap
p4140
aVmazars
p4141
aVrecht100
p4142
aVpollenizer
p4143
aVendatio
p4144
aVquality-unit
p4145
aVmerchant-gould
p4146
aVlabcorp
p4147
aVthe-trout-group
p4148
aVseomoz
p4149
aVubiflow
p4150
aVac3-distribution
p4151
aVtrustwave
p4152
aVelasticity
p4153
aVideation
p4154
aVspyglass-corporate-services
p4155
aVwhiteman-osterman-hannah
p4156
aVapsmart
p4157
aVgoldfarb
p4158
aVmarch-communications
p4159
aVjwt
p4160
aVbbva
p4161
aVholland-knight
p4162
aVdeena-kalai-pllc
p4163
aVtexas-venture-labs
p4164
aVburson-marsteller
p4165
aVcanoe-creative-group
p4166
aVtaft-stettinius-hollister-llp
p4167
aVdinsmore-and-shohl-llp
p4168
aVmahamedi-paradice-kreisman
p4169
aVpr-strategy-group
p4170
aVdotvita
p4171
aViuno
p4172
aVkl-gates
p4173
aVstakemann
p4174
aVsunshine-media
p4175
aVeuroads
p4176
aVprestashop-developemnt-services
p4177
aVelement-pr
p4178
aVbarcelonaattiva
p4179
aVhub-zurich
p4180
aVwwf
p4181
aVeth-zurich
p4182
aVsoftlayer-com
p4183
aVmprm
p4184
aVmax-borges-agency
p4185
aVaccrue-marketing
p4186
aVlisa-gillum
p4187
aVidealogue
p4188
aVantenna-group
p4189
aVterra-law-llp
p4190
aVovo
p4191
aVwired-real-estate-group
p4192
aVai-match
p4193
aVadvertising-com
p4194
aVturn
p4195
aVshipping-rate
p4196
aVshipping-track-and-trace
p4197
aVpiabo
p4198
aVtulip-pr-services
p4199
aVmaterson-partners
p4200
aVpeter-t-associates
p4201
aVd-link
p4202
aVcisco-2
p4203
aVhsbc-2
p4204
aVcitibank
p4205
aVodeawoodman-p-c
p4206
aVshutts-bowen
p4207
aVinnoblue
p4208
aVflastner-greenberg
p4209
aVnelsons-solicitors
p4210
aVrebornbid
p4211
aVrebornforum
p4212
aVkdv
p4213
aVsurpass-hosting
p4214
aVschinner-law-group
p4215
aVthe-name-inspector
p4216
aVcosmo-pr
p4217
aVerica-oh-martinetti
p4218
aVlewis-rice-fingersh
p4219
aVmu6-me
p4220
aVcatfan-me
p4221
aVtdl-international-law-firm
p4222
aVsoftline-solutions
p4223
aVvalley-pr
p4224
aVblue-marketing-firm
p4225
aVfrench-taiwan-chamber-of-commerce
p4226
aVecostrategy
p4227
aVcorporate-finance-partners-cfp-founders-investments
p4228
aVslooce-tech
p4229
aVwowrack
p4230
aVcarr-mcclellan
p4231
aVkatz-katz-sparks
p4232
aVdrawbridge-international
p4233
aVdaszkal-bolton-llp
p4234
aVaelogica
p4235
aVesanghe
p4236
aVmccann
p4237
aVinitiative
p4238
aVooyala
p4239
aVcompany-52
p4240
aVlogmein
p4241
aVvictoria-de-belilovsky
p4242
aVvirginie-crois
p4243
aVcheck21
p4244
aVadvanceme
p4245
aVtasq-technologies
p4246
aVwhitepenny
p4247
aVdewitt-ross-stevens
p4248
aVbusinesslawyerofmilwaukee-com
p4249
aVparagon-innovations
p4250
aV1stavemachine
p4251
aVfortis-general-counsel
p4252
aVpaul-ginsburg
p4253
aVtropo
p4254
aVsky-parlour
p4255
aVcraig-perry-esq-associates
p4256
aVthe-outsourced-associate
p4257
aVbig-communications
p4258
aVelectric-speed
p4259
aVkind-intelligence
p4260
aVmichael-omalley
p4261
aVrichard-keck
p4262
aVthe-zimmerman-agency
p4263
aVbrenda-mcgivern-cpa
p4264
aVhoffman-miller-associates
p4265
aVrosenbergh-cpa
p4266
aVthe-becher-agency
p4267
aVequifax
p4268
aVbizbuysell
p4269
aVover-the-moon-pr
p4270
aVcmg
p4271
aVsorin-royer-cooper
p4272
aVsandbox-strategies
p4273
aVcommonplaces-esolutions-llc
p4274
aVsophia
p4275
aVcbss
p4276
aVvenista-ventures
p4277
aVnavngo
p4278
aVwedding-vendors-directory
p4279
aVwedding-planner-softwre
p4280
aVwedding-planing-magazines
p4281
aVwedding-planing-books
p4282
aVlaunchrock
p4283
aVtransition-networks
p4284
aVvelton-zegelman-pc
p4285
aVbenchmark-executive-search
p4286
aVspringboard-pr
p4287
aVfmc-law
p4288
aVsa-brown-marketing-strategy
p4289
aVmarlin
p4290
aVhappy-hosting
p4291
aVnetgroup
p4292
aVflexera
p4293
aVpixelware
p4294
aVfrance-telecom
p4295
aVaxicom-pr
p4296
aVinnovature-labs
p4297
aVwebs-com
p4298
aVzangari-cohn-cuthbertson
p4299
aVbrainstorm-force
p4300
aVfiammenghi-fiammenghi
p4301
aVmills-reeve-llp
p4302
aVtata-teleservices
p4303
aVwe-make-nice-websites
p4304
aVrich-kenyon
p4305
aVpyxl
p4306
aVplanet-propaganda
p4307
aVprime-concepts-group
p4308
aVshoutlet
p4309
aVgigya
p4310
aVvivedecor-com
p4311
aVinnes-law-firm-p-l
p4312
aVgecko-cpa
p4313
aVpr-media-now
p4314
aVstolar-partnership
p4315
aVmaxcdn
p4316
aVbuysellads
p4317
aVemotionstudios
p4318
aVnetcash
p4319
aVcreyons
p4320
aVscanning4you
p4321
aVprintsasia
p4322
aVperrin-law
p4323
aVwebb-ip-law-group
p4324
aVdavid-stirling-cpa
p4325
aVrlsc-f
p4326
aVde-vivo-whitaker-castro-e-gonalves-advogados
p4327
aVbrickhouse-law-group
p4328
aViweb
p4329
aVmackerel-media
p4330
aVgodadd
p4331
aVnetechnics
p4332
aVsophie-piper-pr-london
p4333
aVleigh-christou-co
p4334
aVlloyds-tsb
p4335
aVardencom
p4336
aVwright-hassall
p4337
aVentanet
p4338
aVagile-training
p4339
aVagile-coaching
p4340
aVagile-elearning
p4341
aVagile-transition
p4342
aVrescue-legacy-code
p4343
aVsimply-booked
p4344
aVgravitas-communications
p4345
aVcomplete-fabrication-limited
p4346
aVinternode
p4347
aVmosquera-abogados
p4348
aVbuckley-sandler
p4349
aVanimatik-creative
p4350
aVneveranemptyglass-media
p4351
aVtech-translations
p4352
aVthe-david-james-agency
p4353
aVboates-law-firm
p4354
aVonboard-informatics
p4355
aVcamensich-design-associates
p4356
aVflying-point-media
p4357
aVrutan-tucker
p4358
aVmiller-and-martin
p4359
aVcapital-mark
p4360
aVseedip
p4361
aVkwwika
p4362
aVrubenstein-communications
p4363
aVfordecampbell
p4364
aVecorce
p4365
aVpremier-graph-x
p4366
aVmarcom-media
p4367
aVssc-consultants
p4368
aVvarito-solutions-pvt-ltd
p4369
aVmutual-mobile
p4370
aVhall-estill
p4371
aVmallesons-stephen-jaques
p4372
aVresponse-marketing-systems
p4373
aVbottomup-webs
p4374
aVrathe-patent-ip-law
p4375
aVbristol-associates
p4376
aVengaged-communications
p4377
aVgreenebaum-doll-mcdonald
p4378
aVkentucky-science-technology-corporation
p4379
aVhudgson-russ-llp
p4380
aVmarketideas
p4381
aVh-r-block
p4382
aVpinnacle-law-group
p4383
aVsky-media
p4384
aVphd-media
p4385
aVconsiderati
p4386
aVronad
p4387
aVshaker-launchhouse
p4388
aVcell-phone
p4389
aVexpansion-media
p4390
aVmeade-internet-services
p4391
aVdigital-forest
p4392
aVbreak-media
p4393
aVwebgrowth-biz
p4394
aVinner-heat-design
p4395
aVnaama-networks
p4396
aVbluepay
p4397
aVyammer
p4398
aVredistogo
p4399
aVzerigo-dns
p4400
aVnew-relic
p4401
aVrecurly
p4402
aVinsomnia
p4403
aVinsomnia
p4404
aVinsomnia
p4405
aVinsomnia
p4406
aVsyntonic-com-au
p4407
aVxpress-it-solutions-ltd
p4408
aVvertica
p4409
aVpixelcrafts
p4410
aVavangate
p4411
aVmonitis
p4412
aVmarteck-consulting
p4413
aVsem-services
p4414
aVsem-services
p4415
aVwelch
p4416
aVcornelius-bartenbach-haesemann-partner
p4417
aVepping-hermann-fischer
p4418
aVscoop-software-gmbh
p4419
aVwho-loves-dalmatians
p4420
aVocean8-kommunikation
p4421
aVskrrl-web-development
p4422
aVl-t-infotech
p4423
aVlift-interactive
p4424
aVgoode-international
p4425
aVreal-life-lab
p4426
aVwinstead-pc
p4427
aVmaxwell-locke-ritter
p4428
aVtnsi-transaction-network-services-international
p4429
aVkrdzn
p4430
aVget-satisfaction
p4431
aVsimplegeo
p4432
aVhelios-designs
p4433
aVdun-bradstreet
p4434
aVflid-media
p4435
aVprleap
p4436
aVpr-log
p4437
aVteam-marketing-systems
p4438
aVsibzsolutions
p4439
aVjeffery-sonnabend
p4440
aVrichard-hattenhauer
p4441
aVklarquist-sparkman-llp
p4442
aVsomfy
p4443
aVbecker
p4444
aVozroll
p4445
aVcnw
p4446
aVtweetwall-pro
p4447
aVpure-matter
p4448
aVclient-management
p4449
aVgenjuice
p4450
aVkiss-insights
p4451
aVfinest-expert
p4452
aVw-j-bradley-mortgage-capital-corp
p4453
aVjobdiagnosis
p4454
aVvantage-pr
p4455
aVwindy-city-marketing-inc
p4456
aVmotiv8
p4457
aVhiresuite
p4458
aVunited-under-economy
p4459
aVinsivia
p4460
aVmorris-manning-martin
p4461
aVsecond-street-media
p4462
aVportfolio-pr-group
p4463
aVsteve-piascik
p4464
aVgaston-gaston-alpc
p4465
aVandree-blixt
p4466
aVhttp-goarticles-com-article-2010-bmw-x6-m-best-buy-in-bmw-cars-for-sale-3707063
p4467
aV4castweb
p4468
aVcogent
p4469
aVtexas-memory-systems
p4470
aVmore-marketing
p4471
aVjhe-marketing-com
p4472
aVclarity-creative-group
p4473
aVmwebb-communications
p4474
aVcyrano-media
p4475
aVlen-ruggiero
p4476
aVmi-jing
p4477
aVerex-chen
p4478
aVseo-samba
p4479
aVzum-yum
p4480
aVrally-point-webinars
p4481
aVtinovsky-associates-llp
p4482
aVpjmc
p4483
aVlewis-silkin
p4484
aVclutch-creative
p4485
aVchugulu
p4486
aVlogilab
p4487
aV3i-infotech
p4488
aVwipro
p4489
aVcuboxsa
p4490
aVnomos
p4491
aVcofigef
p4492
aVvide-infra-group
p4493
aVthemerger
p4494
aVeip
p4495
aVdupont
p4496
aVjungle-pr
p4497
aVlarking-gowen
p4498
aVhelice-consulting
p4499
aVtgi-consultoria-em-gesto
p4500
aVgo-baby-pr
p4501
aVsplash-pr-and-marketing
p4502
aVpress
p4503
aVmy-project-manager
p4504
aVmy-assistant
p4505
aVtraivs-miller
p4506
aVtravis-miller
p4507
aVecreative-works
p4508
aVmicrosoft-azure
p4509
aVdiscountasp-net
p4510
aVscotty-gear
p4511
aVidentity-management
p4512
aViris-recognition
p4513
aVlive-scanners
p4514
aVpc-solutions
p4515
aVembedded-solutions
p4516
aVsystems-integration
p4517
aVaccess-control
p4518
aVtime-and-attendance
p4519
aVsingle-sign-on
p4520
aVfacial-recognition
p4521
aVcristallini
p4522
aVorac-decor
p4523
aVcustom-logo-designs
p4524
aVwebsite-templates
p4525
aVspringloops
p4526
aVwpengine
p4527
aVschematic-com
p4528
aVgit
p4529
aVmelbourne-server-hosting
p4530
aVnadel-phelan-inc
p4531
aVmobile-theory
p4532
aVsilicon-valley-finance-group
p4533
aVcookee-inc
p4534
aVmorris-hassan
p4535
aVsaslbm
p4536
aVloreto-design
p4537
aVchurnless
p4538
aVsspr
p4539
aVbubblebox
p4540
aVvoxel
p4541
aVrealtime-transcription-inc
p4542
aVdiamond-group-marketing
p4543
aVberry-damore-llc
p4544
aVwalters-levine
p4545
aVsidley-austin
p4546
aViplo
p4547
aVorloff-williams
p4548
aVpaper-aircrane
p4549
aVtracy
p4550
aVnh-icc
p4551
aVmaui-labs
p4552
aVpetsmart
p4553
aVdulcimer-designs
p4554
aVbluefever
p4555
aVpillsbury-law
p4556
aVs-j-berwin
p4557
aVprweb-com
p4558
aVtribus-virtual-office-solutions
p4559
aVparys-communications
p4560
aVfrau
p4561
aVnextdaysite-com
p4562
aVsolar-freeonplate-com
p4563
aVyellow-sequoia-solutions-and-education
p4564
aVschwabe-williamson-wyatt
p4565
aVrestaurant-diary
p4566
aVinsignia
p4567
aVbemoko
p4568
aVsmart-thynking
p4569
aVcream-associates
p4570
aVdirecttv
p4571
aVlinux-hosting
p4572
aVsiegal-drossner-pc
p4573
aVfunding-post
p4574
aVdeal-tactics
p4575
aVmark-hawkins
p4576
aVdumoulin-black
p4577
aVbarokas-public-relations
p4578
aVfuture-searches
p4579
aVadmamga
p4580
aVelse-commercial
p4581
aValigned-global
p4582
aVsoftwrap
p4583
aVbrad-gross-becker-poliakoff
p4584
aVric-niciforo
p4585
aVtvu-networks
p4586
aVlivestream
p4587
aVdelve-networks
p4588
aVone-on-one
p4589
aVwebmechanix
p4590
aVpepperjam
p4591
aVimpact-radius
p4592
aVshareasale
p4593
aVaffiliatefuture
p4594
aVlinkconnector
p4595
aVmiva
p4596
aVask-com
p4597
aVgoogle-affiliate-network
p4598
aVcommission-junction
p4599
aVlinkshare-2
p4600
aVtradedoubler
p4601
aVibm-media
p4602
aVdinahosting
p4603
aVthe-marketing-table
p4604
aVmason-hayes-curran
p4605
aVparallels
p4606
aVmerix-studio
p4607
aVjumpstart-marketing
p4608
aVmicrosoft-hellas
p4609
aVstrikeiron
p4610
aVcapterra
p4611
aVactioncoachatlanta
p4612
aVloop-pr
p4613
aVrougefrog
p4614
aVe-cbd
p4615
aVted-gilman
p4616
aVsyniverse
p4617
aVworldwide-printing
p4618
aVsoft-layer
p4619
aVoversan-scalaxy
p4620
aVhetzner
p4621
aVhand-baldachin-amburgey
p4622
aVcontrast
p4623
aVwyh-advisors
p4624
aVbuhler-law
p4625
aVh2-brandworks-llc
p4626
aVmother-nature-partners
p4627
aVclave-media
p4628
aValan-s-knitowski
p4629
aVluan-dang
p4630
aVtelkomsel
p4631
aVvirpus-networks
p4632
aVunruly-media
p4633
aValston-bird-2
p4634
aVratepoint
p4635
aVpat-lutynski-design
p4636
aVsteinfeld-law
p4637
aVwpp
p4638
aVshurn-group
p4639
aVion-e
p4640
aVgurniak-gurniak
p4641
aVharvest-systems-limited
p4642
aVunnat-e
p4643
aVdepthskins-llc
p4644
aVpaul-hastings-2
p4645
aVhutcherson-law
p4646
aVglobal-ip-networks
p4647
aVaikon-labs
p4648
aVwebhosting
p4649
aVmaster-reseller-hosting
p4650
aValpha-master-reseller-hosting
p4651
aVprocopio
p4652
aVolive-pr
p4653
aVfjr-communications
p4654
aVventure-crest
p4655
aVbilling-telecom-solution-development
p4656
aVapplication-development
p4657
aVbanking-application-development
p4658
aVretail-application-development
p4659
aVvideo-application-development
p4660
aVsixta-associates-p-c
p4661
aVthe-program
p4662
aVplexek
p4663
aVkarl-kronenberger
p4664
aVmetalabs
p4665
aVhintfirm-com
p4666
aVthought-mechanics
p4667
aVthe-message-machine
p4668
aVkilpatrick-stockton
p4669
aVstudio-manfredini-e-associati
p4670
aVsciarabba-walker
p4671
aVchoate-hall-stewart-llp
p4672
aVchapin-ip-law
p4673
aVscenario4
p4674
aVmartin-jendrischik
p4675
aVtorben-pfau
p4676
aVinsite-dynamics
p4677
aVmawashii
p4678
aVjordan-edmiston-group-inc
p4679
aVarent-fox-llp
p4680
aValan-michael-kane
p4681
aVdavis-malm-dagostino
p4682
aVwenger-vieli
p4683
aVcobalt-storm-ltd
p4684
aVemergent-game-technologies
p4685
aVbroad-cassel-et-al
p4686
aVhugh-j-sloan-iii
p4687
aVzuora
p4688
aVassessoria-de-comunicao-social-rdio-e-internet-da-puc-rioassessoria-de-comunicao-social-rdio-e-internet-da-puc-rio
p4689
aVstart-in-paris
p4690
aVuriburo-bosch
p4691
aVnextperience
p4692
aVcim-group
p4693
aVbaker-mckinsey
p4694
aVedward-eppler
p4695
aVtom-zimmer
p4696
aVzynga
p4697
aVhairdressing
p4698
aVmanicure
p4699
aVpedicure
p4700
aVwaxing
p4701
aVsynergy-law-group
p4702
aValtitude-marketing
p4703
aVcis-nationwide
p4704
aVcanada-revenue-agency
p4705
aVcibc
p4706
aVcanadian-society-of-immigration-consultants
p4707
aVbarrett-mcnagny-llp
p4708
aVwestern-union
p4709
aVlocalhost
p4710
aVfarallon-law-group
p4711
aVnetrino
p4712
aVinkhouse
p4713
aVfaust-oppenheim
p4714
aVsleuth
p4715
aVstarling
p4716
aVtether
p4717
aVthekmco
p4718
aVtronic
p4719
aVunconventional-partners
p4720
aVvictors-spoils
p4721
aVyour-majesty
p4722
aVnaked-communications
p4723
aVplayerthree
p4724
aVpowell-communications
p4725
aVpropellerfish
p4726
aVpurpose-com
p4727
aVskyrockit
p4728
aVheadmint
p4729
aVhorizon-media
p4730
aVif-we-ran-the-world
p4731
aVimagination
p4732
aVjubaplus
p4733
aVlargetail
p4734
aVmarketshare
p4735
aVmeteor-solutions
p4736
aVmir
p4737
aVmotivequest
p4738
aVbreakfast
p4739
aVcampfire
p4740
aVcollins
p4741
aVconsigliere-brand-capital
p4742
aVcool-hunting
p4743
aVcreative-feed
p4744
aVcunning
p4745
aVdkc
p4746
aVdosage
p4747
aVgmd-studios
p4748
aVbehance
p4749
aVberg
p4750
aVbig-spaceship
p4751
aVblue-state-digital
p4752
aVbrand-synchronicity
p4753
aVmatthew-neco
p4754
aVhenry-inc
p4755
aVcoastline-associates
p4756
aVpitxels-design-studio
p4757
aVtafe-hunter
p4758
aVdunning-marketing
p4759
aVrenee-maler
p4760
aVbig-oak-studios
p4761
aVhttp-rtcpublicity-com
p4762
aVinternap
p4763
aVimage-web-design
p4764
aVmagcloud
p4765
aVeloqua
p4766
aVmichele-mehl
p4767
aVcaptivated-customers
p4768
aV3d-printing
p4769
aVaaditya
p4770
aVfortex-group-pr
p4771
aVtomatocart
p4772
aVschum-associates
p4773
aVcornerstone-marketing-services
p4774
aVblue-lotus-communications
p4775
aVfloating-concepts
p4776
aVproamericas-marketing-media-relations
p4777
aVmontpellier-group
p4778
aVmcgrigors
p4779
aVdesignosoft
p4780
aVtico
p4781
aVmoneris
p4782
aVloans
p4783
aVtumblr
p4784
aVtwitter-3
p4785
aVpiwik
p4786
aVhangar-30-inc
p4787
aVfoxtrak
p4788
aVpeople-tech
p4789
aVappnexus
p4790
aVthe-creative-underground
p4791
aVmob-mentality
p4792
aVdowney-mortgage-financial-inc
p4793
aVkinghost
p4794
aVlocaweb
p4795
aVparwani-law-firm
p4796
aVknowledge-marketing
p4797
aVaccudata
p4798
aVprecision-graphics
p4799
aVcarlson-print-group
p4800
aVideal-printers
p4801
aVcontactology
p4802
aVmarcus-stephen-harris
p4803
aVhazem-hassan-co
p4804
aVcurzon-associates
p4805
aVvalmiki-overseas-education-consultant
p4806
aVsowrya-overseas-education-consultants
p4807
aVradiovoiceimaging-com
p4808
aVservingdot
p4809
aVwindows-hosting
p4810
aVlinex-hosting
p4811
aVemail-hosting
p4812
aVreseller-hosting
p4813
aVvps-hosting
p4814
aVdomain-registration
p4815
aVhosting
p4816
aVblue-fountain-media
p4817
aVsocalwebworx
p4818
aVallyn-media
p4819
aVutopia-systems
p4820
aVmacon-raine
p4821
aVmacon-raine-inc
p4822
aV10-yetis-pr-agency-ltd
p4823
aVm-pact-marketing
p4824
aVbrasco-marketing
p4825
aVrackspace-cloud
p4826
aVverio-2
p4827
aVeventbrite
p4828
aVpaul-lorusso
p4829
aVmichael-yopp
p4830
aVopenbravo-pos
p4831
aVmagento-ecommerce
p4832
aVinterspire-ecommerce
p4833
aVlg
p4834
aVraymund-king-md-jd-fics
p4835
aVdamian
p4836
aVbanckle
p4837
aVzone-media-advertisment-agency
p4838
aVstarmedia-communications
p4839
aVdukas-pr
p4840
aVtyler-barnett-pr
p4841
aVgraef-rechtsanwlte
p4842
aVmbm-commercial
p4843
aVparadigm-counsel
p4844
aVsapna
p4845
aVmaclaymurrayspens
p4846
aVhool-law-group
p4847
aVpakua-it-systems
p4848
aVmatthew-lloyd
p4849
aVmccormick-obrien
p4850
aVbracewell-giuliani
p4851
aVcinenet
p4852
aVhoworth
p4853
aVfrontline-systems
p4854
aVharbour-msp
p4855
aVedwards-angel-palmer-dodge-pa
p4856
aVpr-with-brains
p4857
aVcoadec-the-coalition-for-a-digital-economy
p4858
aVfw-stephens
p4859
aVilaw-co-uk
p4860
aVsocial-cubix
p4861
aVthomas-f-courtney-associates-p-c
p4862
aVimarketing
p4863
aVrooster-ink
p4864
aVmesserli-kramer
p4865
aVtanjable
p4866
aVquadronation
p4867
aVgrippo-and-elden
p4868
aVbeacon-law-advisors-3
p4869
aVpricewaterhousecoopers-australia
p4870
aVshah-barai-associates
p4871
aVomm
p4872
aVyounged
p4873
aVbotax-llp
p4874
aVlandi-accounting
p4875
aVriaxe-systems
p4876
aVgreg-jagiello
p4877
aVneighborhood-pay-services
p4878
aVinreason-media
p4879
aVaffect-strategies
p4880
aVjohnson-king
p4881
aVfiacre-la-batie-hoffman
p4882
aVcohen-grigsby
p4883
aVwilke-associates
p4884
aV99rupeeswebsite
p4885
aVsedo-2
p4886
aVdeeks-evans
p4887
aVdawson-hart
p4888
aVm3-social-mindz
p4889
aVezdrm
p4890
aVkasperski-owen-dinan-cpas-llc
p4891
aVfix-spindelman-brovitz-goodman
p4892
aVhiscock-barclay
p4893
aVhttp-www-graphicdesignscotland-com
p4894
aVlatham-and-watkins
p4895
aVsmartersm
p4896
aVamplifi-pr
p4897
aVfind-invest-grow-fig
p4898
aVintercable
p4899
aVpolsinelli-shughart
p4900
aVswifton-cfos
p4901
aVwebanalytics
p4902
aVonline-marketing
p4903
aVppc
p4904
aVknights-solicitors
p4905
aVsatish-agarwal-advocates
p4906
aVdr-manju-h-r-services
p4907
aVsilicon-valley-law-group
p4908
aVvideos
p4909
aVturbopr
p4910
aVwww-globalpower-industry-com
p4911
aVwww-globalpulp-and-paper-industry-com
p4912
aVwww-globalsteel-industry-com
p4913
aVwww-globaltrade-connect-com
p4914
aVwww-globalchemicalindustry-com
p4915
aVwww-globalhealthcareindustry-com
p4916
aVwww-globalpharmaindustry-com
p4917
aVwww-globalbroadcast-industry-com
p4918
aVwww-globaldefence-industry-com
p4919
aVwww-globalmining-industry-com
p4920
aVwww-globaloutsourcing-industry-com
p4921
aVwww-globalpackaging-industry-com
p4922
aVwww-globalplastics-industry-com
p4923
aVwww-globalplaautomotin-industry-com
p4924
aVwww-globalautomotive-industry-com
p4925
aVidlogik
p4926
aVlaw-offices-of-izidor-mikhli
p4927
aVisadore-mikhli-p-c
p4928
aVacquisition-engine
p4929
aVgray-plant-moody
p4930
aVstart-a-fire
p4931
aVfogler-rubinoff-llp
p4932
aVthe-devon-group
p4933
aVfortune3
p4934
aVthemix-agency
p4935
aVmanage-service-provider-university
p4936
aValbert-goodman
p4937
aVjargon-pr
p4938
aVsuism
p4939
aVoptimus-information
p4940
aVcharles-lumpkin
p4941
aVgameland
p4942
aVlaura-collins
p4943
aVtimu-corp
p4944
aVholly-scothern
p4945
aVpink-mafia
p4946
aVscott-lerman
p4947
aVtoshiba
p4948
aVlucid-brands
p4949
aVcorpcom
p4950
aVbaetens-georges
p4951
aVskinny-fish
p4952
aVsurescripts
p4953
aVquest-diagnostics
p4954
aVbioreference
p4955
aVkareo
p4956
aVvarner-symsta-herndon-cpas
p4957
aVadelstein-sharpe-serka-llp
p4958
aVphanmedia
p4959
aVchambliss-bahner-stophel-p-c
p4960
aVmatt-bartus
p4961
aVkravetz-co
p4962
aVropers-majeski-kohn-bentley
p4963
aVpuredriven-llc
p4964
aVfitzgerald-abbott-beardsley
p4965
aVdiversity-limited
p4966
aVstrategy-process-analysis
p4967
aVknobbe-martens-olson-bear-llp
p4968
aVclock-tower-law
p4969
aVmike-gonnerman
p4970
aVindigo-ventures-law-offices
p4971
aVether-studios
p4972
aVthe-blueshirt-group
p4973
aVhomeier-law-p-c
p4974
aVstubbs-alderton-markiles-llp
p4975
aVthoughtbot
p4976
aVexemplar-law
p4977
aVremarx-media
p4978
aV127weapons-com
p4979
aVccp-marketing
p4980
aVweirfoulds-llp
p4981
aVscottsdale-fairmont-princess
p4982
aVphoenix-business-journal
p4983
aVgreater-phoenix-score
p4984
aVactioncoach
p4985
aVlucky-napkin-llc
p4986
aVwww-amilya-com
p4987
aVseorchers
p4988
aVsandler-training
p4989
aVarizona-technology-council
p4990
aVarizona-small-business-association
p4991
aVladies-who-brand-inc
p4992
aVscottsdale-area-chamber-of-commerce
p4993
aVgreater-phoenix-chamber-of-commerce
p4994
aVmetro-studios
p4995
aVstein-law-plc
p4996
aVhilton-scottsdale
p4997
aVintercontinental-montelucia
p4998
aVscottsdale-resort-conference-center
p4999
aVgilbert-chamber-of-commerce
p5000
aVmire-images
p5001
aVnorth-scottsdale-chamber-of-commerce
p5002
aVdrive-thru-interactive
p5003
aV3point-communications
p5004
aVsquire-sanders-dempsey
p5005
aVking-spalding
p5006
aVbioenterprise
p5007
aVjumpstart
p5008
aVinnova-partners
p5009
aVfj-communications
p5010
aVlsi
p5011
aVarea-data-systems
p5012
aVpogo-linux
p5013
aVthomas-krenn-ag
p5014
aVdataon-storage
p5015
aVibm
p5016
aVvocino-labs
p5017
aVversapay
p5018
aVgoogle-apps
p5019
aVmy-fax
p5020
aVskype
p5021
aVsecurity-metrics
p5022
aVsalloum-law
p5023
aValfredo-castil-design
p5024
aVmaldjian-and-fallon
p5025
aVawb-partnership
p5026
aVlightmaker-limited
p5027
aVbt-agile
p5028
aVbailey-walsh
p5029
aVthe-salup-group
p5030
aVlimitdesigns
p5031
aVsocialbuzzpr
p5032
aVoffshore-outsourcing
p5033
aVopen-x
p5034
aVlawrence-mls
p5035
aVliquidnexxus
p5036
aVvisa-cemea
p5037
aVbond-pr
p5038
aVflemming-llp
p5039
aVwonded-mercado
p5040
aVwonded-sms
p5041
aVwonded-games
p5042
aVwonded-search
p5043
aVadvanced-millennium-technologies-2
p5044
aVhttp-www-seoclock-co-uk
p5045
aVangry-ape
p5046
aVmguevara-law
p5047
aVimpact-specialties-promotions
p5048
aVfat-atom
p5049
aVezine
p5050
aVbj-heinley
p5051
aVjigsaw
p5052
aVvdom
p5053
aVfree-online-translator
p5054
aVrent-it-today-2
p5055
aVeorb-solutions
p5056
aVsevinj-huseynova
p5057
aVwiggin-and-dana-llp
p5058
aVsendgrid-2
p5059
aVsim-solutions
p5060
aVgesmer-updegrove
p5061
aVvm-foundry
p5062
aVtelehouse
p5063
aVorsay-law
p5064
aVaffilinet
p5065
aVinfousa-2
p5066
aVacxiom
p5067
aVwipfli
p5068
aVmichael-best-friedrick-llp
p5069
aVmarin-software
p5070
aVsmith-barney-morgan-stanley
p5071
aVprovest-portfolio-management-llc
p5072
aVborden-ladner-gervais
p5073
aVscully-scott-murphy-presser-p-c
p5074
aVhunter-and-blazier
p5075
aVdrinkerbriddle
p5076
aVimperial-leisure
p5077
aVruss-weinzimmer-and-associates
p5078
aVtim-young
p5079
aVmonument-pr
p5080
aVchalk
p5081
aVkingsley-napeley
p5082
aVacci
p5083
aVlane-powell
p5084
aVmichael-pietzcker
p5085
aVshipleys
p5086
aVthe-little-search-company
p5087
aVaffiliate-window
p5088
aVflashmint
p5089
aVtemplatemonsters
p5090
aVconvert
p5091
aVnovell
p5092
aVcoet-coet
p5093
aVzeis-widerman-malek
p5094
aVcitymax-com
p5095
aVvideoflip-tv
p5096
aVtwilio
p5097
aVdistributive-networks
p5098
aVss-pr-2
p5099
aVjumpfox
p5100
aVwebstation
p5101
aVvox-advertising-design
p5102
aVcre8tive-labs
p5103
aVtwo-for-the-show-media
p5104
aVangelas-and-pauls-backlinks
p5105
aVfabric-media
p5106
aVpaskyip
p5107
aVbrandswag
p5108
aVlocomotive
p5109
aVmysearch
p5110
aVdospelnacs-america
p5111
aVrank-better-seo
p5112
aVbirthplace-inc
p5113
aVm
aVnvidia
p5114
aVtaylor-herring-pr
p5115
aVarthur-cox
p5116
aVclarke-jeffers
p5117
aVlink-murrel
p5118
aVdavis-shapiro-lewitt-grabel-leven-granderson-blake
p5119
aVthebluedoor
p5120
aVdib-creative
p5121
aValtabel
p5122
aVitteco
p5123
aVmoip-com-br
p5124
aVgrupo-rbs
p5125
aVgrupo-odiario-com
p5126
aVwodan
p5127
aVopenmarket
p5128
aVmotricity
p5129
aVthirdpresence
p5130
aVclifton-gunderson-cpa
p5131
aVkenyon-kenyon
p5132
aVsolton-rosen-balakhovsky
p5133
aVdisplay-works
p5134
aVinside-mobile-2
p5135
aValliance
p5136
aVlerner-david-littenberg-krumholz-mentlik-llp
p5137
aVfrankfurt-kurnit-klein-selz-pc
p5138
aVjp-fund-administrations
p5139
aVsolomon-harris-2
p5140
aVjarin-udom
p5141
aVegg-marketing-public-relations
p5142
aVoffices-of-benjamin-macdowell
p5143
aVinsureme-com
p5144
aVavern
p5145
aVcarolyn-dillinger
p5146
aVtwmg-the-weal-media-group
p5147
aVpowerfulcms
p5148
aVavoway
p5149
aVneustar
p5150
aVsysoon-net
p5151
aVvitavie-financial-planning
p5152
aVewareness
p5153
aVmilk-milk
p5154
aVflannel
p5155
aVpure360
p5156
aVemosaic
p5157
aVrackspace-hosting
p5158
aVwatershed-ustreams
p5159
aVnorthside-advisors-llp
p5160
aVunited-prototype
p5161
aVrobin-shepherd
p5162
aVneted-eu
p5163
aVfreexmedia
p5164
aVfredrickson-byron-p-a
p5165
aVbaker-tilly-virchow-krause-llp
p5166
aVi-tv-t-ag
p5167
aVkeratronik-sp-z-o-o
p5168
aVsir-sp-z-o-o
p5169
aVpryor-design-company
p5170
aVmc2-marketing
p5171
aVprivate-placement-advisor
p5172
aVfurnari-scher-llp
p5173
aVthunk-inc
p5174
aVrose-anne-raphael
p5175
aVladbrokes
p5176
aVbrightcove
p5177
aVtrust-catalyst
p5178
aVkrems-pr
p5179
aVprbote
p5180
aVmesa-global
p5181
aVcable-entertainment-distribution
p5182
aVlogicboxes
p5183
aVintegrum
p5184
aVreverb-communications
p5185
aV3rd-dimension-design
p5186
aVamerican-recordable-media
p5187
aVb-h-photo-video
p5188
aVprotack-llc
p5189
aVimodels-staffing
p5190
aVmodern-media-manufacturing
p5191
aVmarchex
p5192
aVpeer1
p5193
aVrno1
p5194
aVsidney-maxwell-public-relations
p5195
aVcyber-duck
p5196
aVvinnoite-media
p5197
aVdynect
p5198
aVzong
p5199
aVgmr-transcription
p5200
aVintelligent-video-solutions-inc
p5201
aVjoynul-miah-2
p5202
aVimran-miah
p5203
aVrpx
p5204
aVpiron
p5205
aVpete
p5206
aVbuchalter-nemer
p5207
aVlawson-lundell-llp
p5208
aVtandem-accounting
p5209
aVlathrop-gage-llp
p5210
aVresponsys
p5211
aVcoremetrics
p5212
aVopencalais
p5213
aVgarland-brown
p5214
aVsocialite-marketing
p5215
aVedwin-lap
p5216
aVsheridan-chambers
p5217
aVevisibility
p5218
aVcofa-media
p5219
aVsolusoft
p5220
aVweb-business-consultants
p5221
aVestibot
p5222
aVmanches
p5223
aVmcclatchy-tribune
p5224
aVtranscription-star
p5225
aVkarma-snack
p5226
aVtransio
p5227
aVlinode-2
p5228
aVwesthost
p5229
aVhostgator
p5230
aVzero-design
p5231
aVburn-advertising
p5232
aVtrilibis-mobile
p5233
aVwildman-harrold-allen-and-dixon
p5234
aVkey-practices
p5235
aVfresh-tilled-soil
p5236
aVrhizome-pr
p5237
aVdolmans-solicitors
p5238
aVmumbai-angels
p5239
aVjellyfish
p5240
aVstartuppr
p5241
aVherpresign
p5242
aVstaiger-schwald-partner
p5243
aVmostash-com
p5244
aVrob-cochran
p5245
aVthe-advance-guard
p5246
aVright-media
p5247
aVeurotiendaonline
p5248
aVnash-nash
p5249
aVgowlings
p5250
aVtchter-shne
p5251
aVscreenwords
p5252
aVpress75
p5253
aVchameleon-pr
p5254
aVfuturehosting-com
p5255
aVrustybrick
p5256
aVjust-say-on
p5257
aVwhmcs
p5258
aVstarfield-security
p5259
aVenom
p5260
aVanvil
p5261
aVlane-pr
p5262
aVbrown-rudnick
p5263
aVhyndman-law
p5264
aVstanfy
p5265
aVevil-twin-brother
p5266
aVliquid-station-media
p5267
aVvialuna-technology
p5268
aVwheel-interactiv-srl
p5269
aVjon-reese
p5270
aVz-mags
p5271
aVsan-francisco-chronicle
p5272
aVlos-angeles-times
p5273
aVclear-channel
p5274
aVlife-magazine-time
p5275
aVlos-angeles-magazine
p5276
aVsan-francisco-magazine
p5277
aVsan-jose-magazine
p5278
aVlumin-publishing
p5279
aVgoogle-4
p5280
aVtope-mckay
p5281
aVblizzard-internet-marketing
p5282
aVlive2c
p5283
aVcopimaj-interactive
p5284
aVpierce-atwood
p5285
aVcapital-one-bank
p5286
aVanother-9
p5287
aVhartman-law-group
p5288
aVinfinitepr
p5289
aVomelveny-meyers-llp
p5290
aVsayu
p5291
aVpointblank
p5292
aVcalfee
p5293
aVl-a-inc
p5294
aVbaron-warren-redfern
p5295
aVengage-pr
p5296
aVratnerprestia
p5297
aVjenna-communications
p5298
aVteam-and-a-dream
p5299
aVsensory-research
p5300
aVernie-kaplan
p5301
aVhanson-bridgett-llc
p5302
aVschwartz-intellectual-property-law-pllc
p5303
aVdesignmind-business-solutions
p5304
aVdesignxcetera
p5305
aVdg-consulting
p5306
aVnewman-communications
p5307
aVkeynote-speakers-inc
p5308
aVangela-wong-cpa
p5309
aVlaunch-squad
p5310
aVfylgia-advokat-firm
p5311
aVdynabyte
p5312
aVigal-arnon-office-llc
p5313
aVhostway-2
p5314
aVrypmarketing
p5315
aVtop-ix-consortium
p5316
aVbluehost
p5317
aVmarie
p5318
aVfaegre-benson-llp
p5319
aVridgeback-communications
p5320
aVscanscout
p5321
aVadotube
p5322
aVzaplive-tv
p5323
aVlease-a-seo
p5324
aVstrategic-patents
p5325
aV1md-be
p5326
aVhardy-communications-development
p5327
aVfrohling-associates
p5328
aVmid-columbia-webs
p5329
aVzenzi
p5330
aVeversheds
p5331
aVvib-solutions-ltd
p5332
aVnet-is-sat
p5333
aVzw-agency-one
p5334
aVmercer-management
p5335
aVmcdermott-will-emery-2
p5336
aVbritish-library-business-ip-centre
p5337
aVstrategic-alliancez
p5338
aVstainless-code
p5339
aVatlantic-metro-communications
p5340
aVl-m-karketing
p5341
aVfreelancercareer-com
p5342
aVtruth-domains
p5343
aVmoon-valley-software
p5344
aVpingzine
p5345
aVdoejo-interactive
p5346
aVpolyworks-case-study
p5347
aVwe-speak-finance
p5348
aVdavis-llp
p5349
aVthe-longitude
p5350
aVhardy-creative-development
p5351
aVmincoffs
p5352
aVkingpin-intelligence
p5353
aVrichards-buell-and-sutton
p5354
aVheroku
p5355
aVpronet-hosting
p5356
aVgoogle-adsense
p5357
aVgoogle-analytics-2
p5358
aVroadtrucker-philippines
p5359
aVmaccord-mason-pllc
p5360
aVgoodson-tayler-cpa
p5361
aVgotomeeting
p5362
aVaccuman-business-law
p5363
aVmarks-co-accountants
p5364
aVworking-the-magic
p5365
aVgodaddy
p5366
aVheroehost
p5367
aVsolidea-capital
p5368
aVaccounting-plus
p5369
aVmirzaian-hardesty-llc
p5370
aVnew-approach-pr
p5371
aVengage-consulting
p5372
aVwikia
p5373
aVcitrusbyte
p5374
aVlaw-offices-of-troy-sugg
p5375
aVclark-wilson
p5376
aVdubai-law-firm
p5377
aVcarole-hallac
p5378
aVdebt-foundation-org
p5379
aVrick-davies-communications
p5380
aVgoodby-silverstein-partners
p5381
aVward-williams
p5382
aVkynetx
p5383
aVlumos-business-solutions
p5384
aVthomas-a-balarsky-cpa
p5385
aVlaunch48
p5386
aVroger-royse-law
p5387
aVmark-longo
p5388
aVsean-hodgins
p5389
aVbeardwood-co
p5390
aVxl-communications
p5391
aVqlp-consultants
p5392
aVmy-web-lancers-llc
p5393
aVopenspace
p5394
aVemi
p5395
aVcatch-fire-marketing
p5396
aVmontgomery-hansen
p5397
aVm30
p5398
aVwork-point-solutions
p5399
aVpizza-seo
p5400
aVzenith-infotech
p5401
aVkutenda
p5402
aVproto-marketing
p5403
aVflorida-accounting-solutions
p5404
aVonebox
p5405
aVjohn-titus
p5406
aVcollege-media-network
p5407
aVsitetuners
p5408
aVondialog
p5409
aVadroit-interactive
p5410
aVparlee-mclaws-llp
p5411
aVwatson-aberant
p5412
aVmontage-communications
p5413
aVlimeknight
p5414
aVtextopoly
p5415
aVpipelinedeals
p5416
aVzoho-2
p5417
aVbee
p5418
aVmckenna-long-aldridge
p5419
aVgnomen
p5420
aVportersimonshadek
p5421
aVneil-gerber-and-izenberg-llp
p5422
aVemail-appending
p5423
aVowen-wiggs-green-mutala
p5424
aVstewart-mckelvey
p5425
aVseungyoo-baek
p5426
aVkyungchul-lee
p5427
aVballyhoo-studios
p5428
aVwhyte-hirshboeck-dudek-s-c
p5429
aVepiphany-law
p5430
aVpp-attonerys
p5431
aVcomcast
p5432
aVsprint-wireless
p5433
aVpentagram
p5434
aVterpin-communications
p5435
aVchai-one
p5436
aVrocksoft-solutions
p5437
aVpatent-law-consulting
p5438
aVworld-market-media
p5439
aVtate-stickles
p5440
aVevergreen-web-seo
p5441
aVriverside-media
p5442
aVfees-burgess
p5443
aVcopperkatz
p5444
aVroyal-atlantic-e-commerce
p5445
aVscratchmedia
p5446
aVgraeme-cook
p5447
aVblueshiftdesign-co-uk
p5448
aVklh-technology-solutions
p5449
aVphillips-reiter
p5450
aVbis-global
p5451
aVrisdall-advertising-agency
p5452
aVmaddhouse-media
p5453
aVlibri
p5454
aVkoenemann
p5455
aVwilliams-parker
p5456
aViconz
p5457
aVbristol-west-insurance
p5458
aVpeach-tree-insurance
p5459
aVgmac-insurance
p5460
aVflorida-family-insurance
p5461
aVst-johns-insurance
p5462
aVuniversal-property-casualty-insurance
p5463
aVsecurity-first-insurance
p5464
aVamerican-integrity-insurance
p5465
aVallianz-life-insurance
p5466
aVjackson-national-life-insurance
p5467
aVgolden-rule-united-health-insurance
p5468
aVold-rupublic-surety
p5469
aVtapco-underwriters
p5470
aVi-b-green
p5471
aVprogressive-insurance
p5472
aVinfinity-insurance
p5473
aVemtel
p5474
aVpestalozzi
p5475
aVajr-partners
p5476
aVmercury-global-partners
p5477
aVlatestjobs-org
p5478
aVjay-marose
p5479
aVeddie-rodriguez
p5480
aVjames-cleary
p5481
aVprivate-placement
p5482
aVsahara-net
p5483
aVjcurtain
p5484
aVsocial-media-commando
p5485
aVjoe-mescher
p5486
aVadam-pecar
p5487
aVjason-schnieder
p5488
aVsmarter-takeout
p5489
aVlowe
p5490
aVwebsiteconsultants-org
p5491
aVtechmarket-communications
p5492
aVcoupon-code
p5493
aVmeosphere
p5494
aVthe-write-impression
p5495
aVmarketing-mavens
p5496
aVmorris-yorn
p5497
aVsunshine-sachs
p5498
aVwebcast1
p5499
aVbrowser-creative
p5500
aVphiarcs-solutions
p5501
aVwhiteboard-accelerator
p5502
aVperfect-relations
p5503
aVbeck-et-al
p5504
aVcactus-studio
p5505
aVeml
p5506
aVk12-moderne-unternehmenskommunikation
p5507
aVelevate-ventures
p5508
aVibee-hosting
p5509
aVprofithandle
p5510
aVserverquo
p5511
aVhiro-staffing-solutions
p5512
aVvertical-measures
p5513
aVcarrot-staffing
p5514
aVmandic
p5515
aVsisplan
p5516
aVcap-brand-marketing
p5517
aVthe-urbane-concierge
p5518
aVbearstech
p5519
aVlockerz
p5520
aVsand-hill-mergers-acquisitions
p5521
aVerica-lee
p5522
aVedgecast-2
p5523
aVharmonypark-2
p5524
aVspreedly
p5525
aVjones-dilworth-inc
p5526
aVvps-net
p5527
aVzingyso
p5528
aVpurpleraincloud
p5529
aVdurham-jones-and-pinegar
p5530
aVprice-elwood
p5531
aVliquidprint
p5532
aVsnapp-conner-pr
p5533
aVgoldstein-caldwell-associates
p5534
aVfox-williams
p5535
aVdeloittes
p5536
aVcreative-spark
p5537
aVachieve-internet
p5538
aVimguru
p5539
aVmy-team-of-experts
p5540
aVwindows4all-com
p5541
aVfish-richardson
p5542
aVweber-schwandwick
p5543
aVsycr
p5544
aVcapital-confirmation
p5545
aVparadate-corp
p5546
aVit-recht-kanzlei
p5547
aVdiamondvita
p5548
aVserve-me-here
p5549
aVetaxmentor
p5550
aVron-harper-creative
p5551
aVwray-ward
p5552
aVhost1plus
p5553
aV0300-media-llc
p5554
aVyale-law-school-small-business-group
p5555
aV798-inc
p5556
aViflexion
p5557
aVattractiveness-online-rating-system
p5558
aVonline-video-submission
p5559
aVability-to-share-videos
p5560
aVmulberry-marketing-communications
p5561
aVteam-technologies
p5562
aVagentur-rnnau
p5563
aVegos-ltd
p5564
aVashings-ltd
p5565
aVadss-ltd
p5566
aVwebsetters-ltd
p5567
aVe-ip
p5568
aVimpact-technology-ltd
p5569
aVaa-info-ltd
p5570
aVtruste
p5571
aVjulie-crabill
p5572
aViexploreasia-media-sg
p5573
aVcarnes-media
p5574
aV1-place-patent-attorneys-solicitors
p5575
aVfishdirectmail-com
p5576
aVsiag
p5577
aVsorex
p5578
aVip-international
p5579
aVwikreate-expansion
p5580
aVmaccloud-associates
p5581
aVrachel-turner
p5582
aVresearch-in-motion
p5583
aVtgaa-tour
p5584
aVs-a-event-services
p5585
aVmygolfeventplanner-com
p5586
aVegolfscore-uk
p5587
aVintrahost
p5588
aVleclairryan
p5589
aVlindahl-associates-pllc
p5590
aVbdo-stoy-haywards
p5591
aVwiredtree
p5592
aVbailey-gardiner
p5593
aVrevolve
p5594
aVszymkowiak-associates-cpa
p5595
aVhodgson-russ-llp
p5596
aVtiwttground-com
p5597
aVkumars-agra-palace
p5598
aVdotnetpanel
p5599
aVlivehosting
p5600
aVitalian-job
p5601
aVronua
p5602
aVlivemag-ro
p5603
aVftiwtt-com
p5604
aVmagnon-solutions
p5605
aVfreejobsite-org
p5606
aVpixelbrush-studios
p5607
aVtakenet
p5608
aVfox-international-channels
p5609
aVmontgomery-psc
p5610
aVthe-lead-factory
p5611
aVgreenstein-consulting
p5612
aVvc-ready-law-group
p5613
aVmarkethink
p5614
aVheffernan-seubert-french-llp
p5615
aVlegalzoom
p5616
aVground-floor-media
p5617
aVinsegment
p5618
aVexemplar-law-partners-llc
p5619
aVstudentsjobs-org
p5620
aVvizion-interactive
p5621
aVthompson-coe
p5622
aVcrushlabs
p5623
aVsanta-barbara-technology-group
p5624
aVquarles-and-brady
p5625
aVgreenberg-traurig
p5626
aVphillips-ormonde-fitzpatrick
p5627
aVtisher-liner-co
p5628
aVjapanese-class
p5629
aVtwin-power-advertising
p5630
aVthe-bluedoor
p5631
aVballou-pr
p5632
aVup-running-software
p5633
aVnational-payment-provider
p5634
aVattorney-corporation-services
p5635
aVdrakeford-kane-new-york-ny
p5636
aVpresidio-search-partners
p5637
aV10th-degree
p5638
aVfunkhouser-vegosen-liebman-dunn-ltd
p5639
aVnorvell-ip
p5640
aVi2e
p5641
aVadobe
p5642
aVcareers-catalyst
p5643
aVllc
p5644
aVcdw
p5645
aVwebtions
p5646
aVinnomediary
p5647
aV420-creative
p5648
aVimerex
p5649
aVsapnasolutions
p5650
aV501-media-group
p5651
aVagent-pr
p5652
aVagent-flix
p5653
aVcalender-robinson-co-inc
p5654
aVnew-counsel
p5655
aVtremor-media
p5656
aVroot-madison
p5657
aVwave-omnimedia
p5658
aVlaunch-engineering
p5659
aVpeak3-communications
p5660
aVbigfish-communications
p5661
aVharbor-view-web-design
p5662
aVapplicake
p5663
aVwilson-sonsini
p5664
aVshopatek
p5665
aVthe-presentation-studio
p5666
aVplumbline-design
p5667
aVspeakers-listeners
p5668
aVpalatnik-factor-online-marketing
p5669
aVadaptive-path
p5670
aVbuysellebiz
p5671
aVblue-apple-design
p5672
aVpan-communications
p5673
aVholonglobe
p5674
aVit-szlk
p5675
aVtoyjobs
p5676
aVdade-hochman
p5677
aVdevtrain
p5678
aVgoldenstar-group
p5679
aVgoldenstar
p5680
aVbitchemist
p5681
aVsteadfast-consulting
p5682
aVartspromo
p5683
aVmarket-location
p5684
aVthe-demo-coach
p5685
aVsweethome
p5686
aVsimple-it
p5687
aVignite-pr
p5688
aVarcher-greiner
p5689
aVmcnaul-ebel-nawrot-helgren-pllc
p5690
aVone-x
p5691
aVspider-mechanic
p5692
aVsyncrony-hosting
p5693
aVextreme-enterprises-inc
p5694
aVunruly-studios
p5695
aVcalifornia-venture-partners
p5696
aVgraphics-system
p5697
aVcolorix
p5698
aVandcor-companies
p5699
aVdonitza-pr-dmc
p5700
aVhumana-one
p5701
aVunited-health-one
p5702
aVrbc
p5703
aVassurant-health
p5704
aVblue-cross-blue-shields
p5705
aVceltic-health
p5706
aVcurrency-trading
p5707
aVstuart-lemle
p5708
aVquicknet
p5709
aVvivid-ascent
p5710
aVgrapevine-marketing-agency
p5711
aVbarnes-thornburg
p5712
aVmessage-systems
p5713
aVn-frame
p5714
aVburr-forman-llp
p5715
aVburdette-ketchum
p5716
aVgoogle-app-engine-2
p5717
aVbalaji
p5718
aVmarlinsbrain
p5719
aVveyond-partners-korea
p5720
aVembedded-wireless-labs-sdn-bhd
p5721
aVnuvation-research-corp
p5722
aVstudiotaktika
p5723
aVapples-2-apples
p5724
aVmateer-harbert
p5725
aVheimlich-law
p5726
aVgumptious
p5727
aVdimnet-web-services
p5728
aVpedley-richard
p5729
aVcrea-labs
p5730
aVmediapr-net
p5731
aVteneric-business-plan-software
p5732
aVcineuropa-org
p5733
aVangelsoft
p5734
aVredwood-international-network
p5735
aVpeacefulfish
p5736
aVtough-love-seo-services
p5737
aVraz-pr
p5738
aVwilliam-galkin
p5739
aVkarl-israelsen
p5740
aVspire-communications
p5741
aVandrews-kurth-2
p5742
aVinterxion
p5743
aVlownes-drosdick-dostor-kantor-and-reed
p5744
aVsusan-deacon-properties
p5745
aVwise-pr
p5746
aVeast-agile
p5747
aVmtanalytics
p5748
aVecpi
p5749
aVwalcott-river-gates
p5750
aVrourkpr
p5751
aVhostmysite
p5752
aVply-entertainment
p5753
aV7th-level-consulting
p5754
aVda-stores-llc
p5755
aVmintz-levin-cohn-ferris-glovsky-and-popeo-llp
p5756
aVcalunix
p5757
aVtrinet
p5758
aVmy-cv-and-me
p5759
aVneolex-ab
p5760
aVwebdisk
p5761
aVraj-abhyanker-llp
p5762
aVpatent-express
p5763
aVwagnery-duys-wood-lllp
p5764
aVivan-pr
p5765
aVvirtual-concepts-2
p5766
aVmr-j-miah
p5767
aVmr-richardson
p5768
aVsilverthorn-networks-incorporated
p5769
aVzakon-hr
p5770
aVintelletrace
p5771
aVventurestaff
p5772
aVfox-latin-american-channel-inc
p5773
aVii-network-hispanoamerica-s-a
p5774
aVmediakeys-inc
p5775
aVmercadolibre-inc
p5776
aVcpanel-inc
p5777
aVkosmopolis-inc
p5778
aVfriendfinder-networks-inc
p5779
aVconsorte-media-inc
p5780
aVmass-media-group
p5781
aVindigoridge
p5782
aVet-s
p5783
aVsovren
p5784
aVfab-creative-solutions
p5785
aVeffectivus
p5786
aVharbinger-systems
p5787
aVink-public-relations
p5788
aVbig-4-accounting-in-progress
p5789
aVelwtechnology
p5790
aVconversion-counts
p5791
aVepr-network
p5792
aVmeylan
p5793
aVbermudes
p5794
aVtwitbot-network
p5795
aVcmykimaging
p5796
aVsungard
p5797
aVagility
p5798
aVpeak-10
p5799
aVatlantic-net
p5800
aVwavecolo
p5801
aVinfinitum-technologies
p5802
aVi365
p5803
aVsidekick
p5804
aVsminn
p5805
aVblindesign
p5806
aVfennemore-craig
p5807
aVtotal-telecom-consulting
p5808
aV3bl-media
p5809
aVteliplus
p5810
aVengage-brands
p5811
aVdavis-gilbert
p5812
aVhayen-company
p5813
aVnetshelter
p5814
aVtribal-fusion
p5815
aVmc2
p5816
aVhammonds
p5817
aVaxis-marketing-and-pr
p5818
aVcallpoint-new-europe
p5819
aVthe-rose-group
p5820
aVsean-kelly
p5821
aVkurt-taylor
p5822
aVbeanstream
p5823
aVjett-media-group
p5824
aVthisconference-com
p5825
aVh3c-inc
p5826
aVfuzzybrain
p5827
aVslicehost-2
p5828
aVwolthuis-accountants
p5829
aVkorvinus-and-co
p5830
aVmeines-and-partners
p5831
aVnagarjuna
p5832
aVdhanwanthiri
p5833
aVdhathri
p5834
aVsomatheeram
p5835
aVestuary-islands
p5836
aVthapovan
p5837
aVkrishnatheeram
p5838
aVnklc
p5839
aVtransvideo-studios
p5840
aVmoore-green
p5841
aVtaylor-vinters
p5842
aVprospectmx
p5843
aVif-communications
p5844
aVrightscale
p5845
aVdotdesign
p5846
aVcoast-law-group
p5847
aVgard-kaslow
p5848
aVravi-ltd
p5849
aVstudioapp
p5850
aVthe-barfield-group
p5851
aVharbottle-lewis
p5852
aVchameleon
p5853
aVadspeed
p5854
aVred-dot
p5855
aVopen-source-business-foundation
p5856
aVlocke-lorde-bissell-liddell
p5857
aVsphere-concierge
p5858
aVpacific-view-pr
p5859
aVbuchanan-law-group
p5860
aVcarrier-y-asociados
p5861
aVdls-consulting
p5862
aVampp-consulting
p5863
aVoptio-interactive
p5864
aV47media
p5865
aVone-up-web
p5866
aVkpmg
p5867
aVsrh-real-estate-appraisals-inspections-and-research-services
p5868
aVzurich-university-of-applied-science
p5869
aVavantec-it-security
p5870
aVzhlke-software-engineering
p5871
aVbrinkwire
p5872
aVwebsite
p5873
aVstoop-law-office
p5874
aVsopra-group
p5875
aVhabanero-consulting-group
p5876
aVinternet-technology
p5877
aVsecure-web-hosting-services
p5878
aVinternet-strategy
p5879
aVcreative-design
p5880
aVadd-equatio
p5881
aVaalto-entrepreneurship-society
p5882
aV4-corners
p5883
aVdavetech
p5884
aVtrebatch
p5885
aVblast-4-traffic
p5886
aVebrandz
p5887
aVcyberstorm-digital
p5888
aVi-net-giant
p5889
aValexandre-diehl
p5890
aVactivereception
p5891
aVthesisdigital
p5892
aVeventtrack
p5893
aVonefish-twofish
p5894
aVevoked-set
p5895
aVtechnologypr-com
p5896
aVryan-roberts
p5897
aVroxbourne-the-marketing-designers
p5898
aVmarsilio-rcs
p5899
aVgunderson-dettmer-stough-villeneuve-franklin-hachigian-llp
p5900
aVschwegman-lundberg-woessner-p-a
p5901
aVimagined-creative
p5902
aVantarra-communications
p5903
aVmichael-blum
p5904
aVraphael-mehrbians
p5905
aVeoffice
p5906
aVmavenmullet
p5907
aVenterprise-system-solutions
p5908
aVg2one
p5909
aVtelserv
p5910
aV4elbows-llc
p5911
aVhostmonster
p5912
aVfoodler
p5913
aVheartland-payment-solutions
p5914
aVthe-pachera-group
p5915
aVprpr
p5916
aVnetworking-associates-ltd
p5917
aVlowenstein-sandler
p5918
aVgrowwellington
p5919
aVplu-communications
p5920
aVtokyo-2-0
p5921
aVpopfax-com
p5922
aVcherwell-software
p5923
aVbusiness-catalyst
p5924
aVconsul-executive-services
p5925
aVcomponent-source
p5926
aVthe-atticus-partnership
p5927
aVprecision-web-marketing
p5928
aVblue-sky-factory
p5929
aVelgg
p5930
aVverisign
p5931
aVopen-id
p5932
aVgseo
p5933
aVcogniance
p5934
aVngenera
p5935
aVncsm-strategic-marketing
p5936
aVinboxsolutions
p5937
aVpackshot-com
p5938
aVbriffa
p5939
aVeuropean-leadership-programme
p5940
aVplaveb-corporation
p5941
aVmarketplane
p5942
aVrobert-bianchi
p5943
aVhope-tech-global
p5944
aVmaverick-media-agency
p5945
aVhong-kong-job-search
p5946
aVsimon-goetz
p5947
aVmashup-communications
p5948
aVtic-mobile
p5949
aVendil
p5950
aVsansar-grewal
p5951
aVkearns-west
p5952
aVhighland-group
p5953
aVblueliner-marketing
p5954
aVrescon
p5955
aVpivotal-labs-inc
p5956
aVconcept-communications
p5957
aVstetina-brunda-garred-brucker
p5958
aVmaples-communications-inc
p5959
aValliance-counsel-llp
p5960
aVbranddevelop
p5961
aVverge-media
p5962
aVbrandsavvy
p5963
aVcentralsite
p5964
aVptolemus-consulting-group
p5965
aVtrder-jrg-dr
p5966
aVrdl-partner
p5967
aVnatascha-grosser
p5968
aVtailor-wessing
p5969
aVbnc
p5970
aVvisionarts-communications
p5971
aVperformanceg2
p5972
aVimpel-overseas-consultants-limited
p5973
aVx3-studios
p5974
aVparagon
p5975
aVnorsac-llc
p5976
aVhieroglifs-translations
p5977
aVamir-rezaizadeh
p5978
aVmobile-capital-network
p5979
aVmorris-king
p5980
aVdwight-cribb-personalberatung
p5981
aVpunch-communications
p5982
aVrecogmission
p5983
aVsoula
p5984
aVus-financial-freedom
p5985
aVassuresco
p5986
aVspruz-2
p5987
aVbite-communications
p5988
aVnaschitz-brandes-co-advocates
p5989
aVamerican-energy-conservation-group
p5990
aValoha-developments-virtual-estates
p5991
aVethos-mentor
p5992
aVau-trans-porteur
p5993
aVmelcion
p5994
aVexpansion-usa
p5995
aVbob-weinstein
p5996
aVrss-business-solutions
p5997
aVrtv-peru-s-a
p5998
aVrenee-goltz
p5999
aVthunder-tech
p6000
aVstudiothink
p6001
aVtheill-andersen-a-s
p6002
aVdealzone-india
p6003
aVgc-andersen-partners
p6004
aVhighrankingseo-net
p6005
aV000-webhost
p6006
aVgdm-interactive
p6007
aVblank-rome
p6008
aVcitrin-cooperman
p6009
aVstrongspace
p6010
aVrosenstein-hintzman
p6011
aVsoftpressrelease
p6012
aVsteve-shu-consulting-services
p6013
aVbdo
p6014
aVcobbetts-llp
p6015
aVbraben
p6016
aVpaine-pr
p6017
aVcrane-dunham-pllc
p6018
aVproxiti
p6019
aVgtt
p6020
aVliberate-media
p6021
aVcheckcdr-com
p6022
aVoverhouser-and-company
p6023
aVsteven-lee-associates
p6024
aVj-k-advertising
p6025
aVjobsbridge
p6026
aVresound-marketing
p6027
aVswimfish
p6028
aVjampr
p6029
aVdogleg-communications
p6030
aVwdfa-marketing
p6031
aVpaid-support
p6032
aVpolarmedia-tv-ug
p6033
aVkapston
p6034
aVperceval-technologies
p6035
aVandrews-kurth
p6036
aVlois-paul-partners
p6037
aVrenaissance-recruitment
p6038
aVperfect-storm
p6039
aVfosbury-pr
p6040
aVemw-law-picton-hale
p6041
aVkim-law-advisors
p6042
aVparente-randolph
p6043
aVwebguru
p6044
aVgrapevine-communications
p6045
aVbdo-seidman-2
p6046
aVfastlane
p6047
aVcobbetts
p6048
aVhonest-group
p6049
aVrowlinson-cooper
p6050
aVhiploose-global-solutions
p6051
aVsoftware-development-services
p6052
aVmobster-apps
p6053
aVlfg-computer-gaming-inc
p6054
aVvac-media
p6055
aVsquar-milner
p6056
aVkultunaut
p6057
aVinnofactor
p6058
aVedulab
p6059
aVdjf
p6060
aVvopium
p6061
aVberlingske-media
p6062
aVmedia-contour
p6063
aVmindset-designs
p6064
aVgru-com
p6065
aVbellsouth-net
p6066
aVbuzz-builders-2
p6067
aVbit-iptv
p6068
aVarnold-and-porter
p6069
aVsketchin
p6070
aVrichardbscott
p6071
aVmetaflavor
p6072
aVselmer
p6073
aVyatn-indian-ngo
p6074
aVnetwork-capital
p6075
aVresource-suites
p6076
aVpixelperfx
p6077
aVit-entrepreneur-network
p6078
aVcinops
p6079
aVrobert-o-kaplan
p6080
aVcapulet-communications
p6081
aVneolegis
p6082
aVkardumen
p6083
aVtechsalesgroup
p6084
aVbulman-business-and-technology-law
p6085
aVgca-savvian
p6086
aVropes-gray
p6087
aVcutline-communications
p6088
aVkaren-hartline
p6089
aVcatalyst-sf
p6090
aVnew-venture-communications
p6091
aVswift-hr-solutions
p6092
aVvideos-of-turkey
p6093
aVeleven2
p6094
aVpink-frog-interactive-inc
p6095
aVstrategic-law-partners-llc
p6096
aVshumaker-sieffert-p-a
p6097
aVglassesshop-com
p6098
aVappleuzer-engineering
p6099
aVberk-communications-2
p6100
aVkemp-little-llp
p6101
aVkismet-communications
p6102
aVmarketblink
p6103
aVwebdesignsquote
p6104
aVelite-ladders
p6105
aVroccanet-inc
p6106
aVacidgreen
p6107
aVnat-king
p6108
aVhatch-pr
p6109
aVbrooke-van-natta
p6110
aVdreamhost
p6111
aVkawoosa-research-group
p6112
aVwr-design
p6113
aVnew-dawn-media
p6114
aVmartini-media
p6115
aVhigh-tech-strategies
p6116
aVtrellist
p6117
aVgreenburg-traurig
p6118
aVogily-pr
p6119
aVwit-corporation
p6120
aVgroshelle-communications
p6121
aVwinston-strawn-2
p6122
aVwaldron-h-rand-company-p-c
p6123
aVriemer-braunstein-llp
p6124
aVsimply-ideas-llc
p6125
aVurfooz
p6126
aVpict
p6127
aVorange-soda
p6128
aVsite5
p6129
aVmallorca-ferienwohnungen
p6130
aValphadigital
p6131
aVgigfish-com
p6132
aVeleet-technologies
p6133
aVidiom-strategies
p6134
aVadobe-scene-7
p6135
aVnexsen-pruett
p6136
aVpowell-creative
p6137
aVeurekastep
p6138
aVkwiqq
p6139
aVd2v
p6140
aVatlantic-consulting-wa-ltd
p6141
aVitransition
p6142
aVeffect-digital
p6143
aVcomputer-consulting-kit
p6144
aVyahoo-search-marketing
p6145
aVb4uindia-com
p6146
aVpeter-wiltjer
p6147
aVmailchimp
p6148
aVactiva-live-chat
p6149
aVfreshbooks
p6150
aVbasecamp
p6151
aVstreamsend
p6152
aVkickstart
p6153
aVvantage-pointe-studios
p6154
aVwestward-strategy-design-group
p6155
aVvision-one-convergence-group
p6156
aVhost-gator
p6157
aVmisk
p6158
aVasesores-alfa
p6159
aVfreedomain-co-nr
p6160
aVfuntigo-ltd
p6161
aVfonlogix
p6162
aVfsb-associates
p6163
aVthe-dan-evans-group
p6164
aVfama-pr
p6165
aVkorpi-consulting
p6166
aVcontata-solutions
p6167
aVgc-law
p6168
aVviewstream
p6169
aVacknowledgement
p6170
aV1url
p6171
aVmojave-interactive
p6172
aVmccarthy-ttrault
p6173
aVprice-waterhouse-coopers
p6174
aVchina-first-capital
p6175
aVvivahabandhan
p6176
aVbloom-hergot-diemer
p6177
aV8i-creations
p6178
aVprager-fenton
p6179
aVchase-bank
p6180
aVleason-ellis
p6181
aVthe-fidelis-agency
p6182
aVtechaisle
p6183
aVfruitengine
p6184
aVplanet-numbers
p6185
aVorchard-chennai
p6186
aVlisa-bailey
p6187
aVhutchinson-bloodgood-2
p6188
aVbalora
p6189
aVatabl
p6190
aVmirror-communications
p6191
aVkool-kat-web-designs
p6192
aViresearch-services
p6193
aVscholarships-for-troops
p6194
aVcastle-ventures
p6195
aVhorizon-communications
p6196
aVgriffin-york-krause
p6197
aVmobility-public-relations
p6198
aVgobi-it-solutions
p6199
aVidspeakers-com
p6200
aV3aw-radio-station
p6201
aVmiworld-consultancy
p6202
aVmaven-communications
p6203
aVrostrum-pr
p6204
aVpositiveadv
p6205
aVconsultingsoft
p6206
aVvia-networks
p6207
aVpropel
p6208
aVtricor-public-relations
p6209
aVoag
p6210
aVthe-conversation-group
p6211
aVgroup-m
p6212
aVcrossings
p6213
aVmercer-piel-esq
p6214
aVpixolt-industries
p6215
aVarena-group
p6216
aVmashery
p6217
aVwizzard-media
p6218
aVrazor-gator
p6219
aVempire
p6220
aVif-then
p6221
aVddj
p6222
aVmatizmo
p6223
aVipic-visual
p6224
aVhealthline
p6225
aVadam
p6226
aVwalter-haverfield
p6227
aVpureplay-media
p6228
aVharlan-laws-corporation
p6229
aVleader-enterprises
p6230
aVthe-grey-matters-education-limited
p6231
aVeggers-malmedier
p6232
aVtaylor-wessing
p6233
aVingenuity-marketing-services
p6234
aVilan-lovinsky-gunderson-dettmer-stough
p6235
aVquote-media
p6236
aVam-charts
p6237
aVkaye-scholar
p6238
aVbeaupre-pr
p6239
aVde-widt-bv
p6240
aVt-backes
p6241
aVnieuwejongens
p6242
aVwork-at-play
p6243
aVrubicon-law-group
p6244
aVneubloc
p6245
aVacumen-pr-com
p6246
aVtext-100
p6247
aVhooper-galton
p6248
aVmade-by-many
p6249
aVcanal-partner
p6250
aVambrose-communications
p6251
aVwebtronaut-innovations
p6252
aVmukesh-raj-company
p6253
aVclarus-law-associates
p6254
aVstandard-db-org
p6255
aVgs1
p6256
aVfuturlink
p6257
aVknv
p6258
aVsa2-worldsync
p6259
aVenough-software
p6260
aVixellence-gmbh
p6261
aVgamelion-studios
p6262
aVmorpho-development
p6263
aVflightview
p6264
aVflightstats
p6265
aVcanonical
p6266
aVdwhs
p6267
aVfuelstart-com
p6268
aVandymayer-net
p6269
aVevery-city
p6270
aVlandor
p6271
aVblue-rubicon
p6272
aVbootlaw
p6273
aVtech-juris
p6274
aVsara-pereira-marketing-and-communications
p6275
aVneomancer
p6276
aVjust-drive-media
p6277
aVfasken-martineau-2
p6278
aVbereskin-parr
p6279
aVtorys
p6280
aVcomunicano
p6281
aVmorisawa-de-koeven
p6282
aVlabarge-weinstein
p6283
aVfinancialcontent
p6284
aVsummit-law-group
p6285
aVcorefino
p6286
aVevolve-technologies
p6287
aVinteractive-study-systems
p6288
aVkasman-squillante
p6289
aVmcguire-woods
p6290
aVpunkkat
p6291
aVjennifer-woodard
p6292
aVgeyrhalter-design
p6293
aVoconnell-law
p6294
aVtop-test-prep
p6295
aVhill-knowlton
p6296
aVosborne-clarke
p6297
aVfrische-fische
p6298
aVworldline
p6299
aVviget-labs
p6300
aVeyos
p6301
aVfreewebs-com
p6302
aVservice-tax-consultant
p6303
aVantenn-i-creative
p6304
aVlaw-offices-of-walter-batt
p6305
aVbuggysoftware
p6306
aVhosteurope
p6307
aVprofilesoft
p6308
aVdill-katzenell-dimant-law-offices
p6309
aVbrooks-keret
p6310
aVabanlex-abogados
p6311
aVindiaviaggi
p6312
aVindovision
p6313
aVwrite-choice
p6314
aVdan-hunt-technical-div
p6315
aVdennis-donahue-esq
p6316
aVinnotec
p6317
aVgummisig
p6318
aVkartel
p6319
aVburton-stuart
p6320
aVdebonis-asociados
p6321
aVpa-sportsticker
p6322
aVmarcaria
p6323
aVmedia-temple-2
p6324
aVeurope-registry
p6325
aVvilage
p6326
aVofplaw
p6327
aVapex-talent-search-pvt-ltd
p6328
aVomazo-ventures
p6329
aVboylan-brown
p6330
aV1webimage
p6331
aVtaft-law-firm
p6332
aVhidden-river
p6333
aVsherdians
p6334
aVrevenue-solved
p6335
aVconference-guru
p6336
aVgutenberg-communications
p6337
aVweb-carr
p6338
aVplenia
p6339
aVecija-abogados
p6340
aVcalysto
p6341
aVbusinet
p6342
aVsolmicro
p6343
aVgaldon
p6344
aVfujitsu
p6345
aVpanda-security
p6346
aVmicrosoft-2
p6347
aVthe-jaxson-group
p6348
aVvivotek
p6349
aVthompson-hine
p6350
aVflourish
p6351
aVbluebridge-networks
p6352
aVsitemaker
p6353
aVranda-codron
p6354
aVpearl-cohen-zedek-lazer
p6355
aVtranzila
p6356
aVelizabeth-lambley-indigo-pr
p6357
aVescalate-moderation
p6358
aVethos-360
p6359
aVgenerate-partners
p6360
aVaust-domains
p6361
aVtectura-corporation
p6362
aVruden-mcclosky-pa
p6363
aVcarol-mcatee-assoc
p6364
aVdock29-a-marketing-agency
p6365
aVplanlogix-llc
p6366
aVmichael-johnson-associates
p6367
aVdla-philips-fox
p6368
aVuhy-haines-norton
p6369
aVworketer
p6370
aVmarket
p6371
aVsix-degrees
p6372
aVhowsplendid
p6373
aVvsc-consulting
p6374
aVox-and-co
p6375
aVmason-hayes-and-curran
p6376
aVcareersaver
p6377
aVthe-cloud-of-data
p6378
aVexecutive-alliance-group
p6379
aVsequoia-counsel
p6380
aVyahoo-3
p6381
aVmsn-2
p6382
aVmultimedia-development-2
p6383
aVtesting-solutions-2
p6384
aVbpo-services-2
p6385
aVweb-solution-2
p6386
aVtechnical-writing-2
p6387
aVe-commerce-2
p6388
aVsoftware-development-2
p6389
aVsoftware-maintenance
p6390
aVhubspot
p6391
aVlead-lander
p6392
aVdotted-line-communications
p6393
aVfour-corners-communications
p6394
aVbright-right
p6395
aVholme-roberts-owens-llp
p6396
aVusability-pro
p6397
aVturquoise-networks
p6398
aVclothing-wire
p6399
aVwissen-systems
p6400
aVbasic-matrix-llc
p6401
aVtitan-gaming-inc
p6402
aVice-miller
p6403
aVroundpeg
p6404
aVdilsebol
p6405
aVkwizcom
p6406
aVstearns-weaver
p6407
aVnaveh-kantor-even-har-law-offices
p6408
aVduration-inc
p6409
aVbolt-public-relations
p6410
aVmtv-networks
p6411
aVtw-telecom
p6412
aVcustomer-magnetism
p6413
aVbeyond-pr
p6414
aVjhg-townsend
p6415
aVphpize-2
p6416
aVdavinci-virtual
p6417
aVcashboard
p6418
aVearth-class-mail
p6419
aVvag-grodman
p6420
aVgarrson-ink
p6421
aVnoel-and-company
p6422
aVglobal-business-advisors
p6423
aVklickfreundlich
p6424
aVpi-business-research
p6425
aVcirrus-financial-communications-llc
p6426
aVidini-consulting-group
p6427
aVbod-strategy
p6428
aVrem-enterprise
p6429
aVabsolutvision
p6430
aVcommunications4good
p6431
aVsmsyantra
p6432
aVwillson-pechacek
p6433
aVstinson-morrison-hecker
p6434
aVsan-francisco-business-times
p6435
aVinfinitech
p6436
aVdesigncatwalk
p6437
aVstfrancis
p6438
aVdesign-trotter
p6439
aVbeeline
p6440
aVimc2
p6441
aVinterform
p6442
aVstoryboard-pr
p6443
aVsearch-mojo
p6444
aVowgm
p6445
aVfaskin-martineu
p6446
aVgrant-thornton
p6447
aVkromann-reumert
p6448
aVhenry-grey-pr
p6449
aVleewayhertz
p6450
aVistanbuldijital
p6451
aVshawn-stratmann
p6452
aVreichert-communications
p6453
aVpage-one-public-relations
p6454
aVbuzzconnect
p6455
aVdaggerboard-advisors
p6456
aVsnell-wilmer
p6457
aVyano-creative
p6458
aVwww
p6459
aVlogic-beep
p6460
aVlogic-trends
p6461
aVlogic-compete
p6462
aVlogic-buzz
p6463
aVcitigatecunningham
p6464
aVmarx-trotsky
p6465
aVreconstrukt
p6466
aVwild-west-domains-inc
p6467
aVeagle-software-group
p6468
aVbmg
p6469
aVmetaspring
p6470
aVresumebear
p6471
aVhaverstock-and-owens
p6472
aVrosemary-hefley
p6473
aVmachell-aarhus
p6474
aVmichael-katzman
p6475
aVdale-marples
p6476
aVelevate-recruiting-group
p6477
aVwilmerhale
p6478
aVobi-creative
p6479
aVhusch-blackwell-sanders-llp
p6480
aVfigaro-interactive
p6481
aVtyphon
p6482
aVgroupe-reflect
p6483
aVopencoffee-club-paris
p6484
aV247virtualassistant-com
p6485
aVellipse-corporation
p6486
aVbaker-hostetler
p6487
aVrf-binder
p6488
aVmoynihan-partners
p6489
aVpropheta-communications
p6490
aVostrolenk-faber-gerb-soffen-llp
p6491
aVstewart-mckelvey-stirling-scales
p6492
aVmammoth-entertainment
p6493
aVvision-quest-lyles-center-fresno-multiverse
p6494
aVbrain-alliance
p6495
aVignite
p6496
aVcompendium
p6497
aVexacttarget
p6498
aVdittoe
p6499
aVvoler
p6500
aVhanwi-inc
p6501
aVroy-webster
p6502
aVproductops
p6503
aVjim-dyke-and-associates
p6504
aVholmes-labs
p6505
aVmblox
p6506
aVsaxum-pr
p6507
aVmcafee-taft
p6508
aVhogan-slovacek
p6509
aVboeche-mcdermott
p6510
aVfoley-hoag-llp
p6511
aVweb2asia
p6512
aVemerging-enterprise-center-at-foley-hoag
p6513
aVrezonant-design
p6514
aVeffort-bpo
p6515
aVomahony-donnelly-chartered-certified-accountants
p6516
aVcall-center-services
p6517
aVproboards
p6518
aVmcquirewoods
p6519
aVideocore
p6520
aVspin3
p6521
aVcaledonian-heritable
p6522
aVgted
p6523
aVoak-ventures
p6524
aVstage-two-consulting
p6525
aVcomun
p6526
aVbua-consulting
p6527
aVfinancial-analysis-and-control-technology-services-facts
p6528
aVpaper-stone-scissors
p6529
aVjackson-laycock
p6530
aVpricegrabber-com-2
p6531
aVkalavros-law-firm
p6532
aVdynamic-synergy
p6533
aVfairfield-woods
p6534
aVtrain-machine
p6535
aVlzt-architects
p6536
aVemdash
p6537
aVfirecat-studio
p6538
aVintegral-concepts
p6539
aVwuesthoff-wuesthoff
p6540
aVwebsynergy
p6541
aVrails
p6542
aVrsaweb
p6543
aVcopilevitz-canter
p6544
aVolive-branch-management
p6545
aVversion-2-0-communications
p6546
aVsecond2
p6547
aVplanet-argon
p6548
aVestara
p6549
aVabel-communications
p6550
aVone-leonardo-it
p6551
aVtwistedtree
p6552
aVpreturn
p6553
aVsonet-digital
p6554
aVvineberg-communications
p6555
aVdesign-commission
p6556
aVpure-innovation
p6557
aVkariba-productions
p6558
aVthe-bateman-group
p6559
aVjerusalem-style
p6560
aVtarant-wymer
p6561
aVsolloway-wright
p6562
aVvelocity
p6563
aVpagecolumn
p6564
aVstravora-consulting
p6565
aVberwin-leighton-paisner
p6566
aVgopons-mobile-coupons
p6567
aVruiz-agency
p6568
aVliquidweb
p6569
aVdrum-consultancy
p6570
aVhogan-hartson
p6571
aVpkf
p6572
aVmegaventory
p6573
aVprechasm
p6574
aVxs4all
p6575
aVnoein-inc
p6576
aVexubrio-group
p6577
aVnavteq
p6578
aVmapa
p6579
aVofek
p6580
aVventure-development-center
p6581
aVthink-marketing
p6582
aVtwelve-horses
p6583
aVcore-objects
p6584
aVfossil
p6585
aVbig-noise-pr
p6586
aVvoce-communications
p6587
aVdavies-murphy-group
p6588
aVhitprom-real-estate
p6589
aVmobitex
p6590
aVkillerstartups
p6591
aVtbwa-chiat-day
p6592
aVecom-enterprises
p6593
aVcambridge-omnimedia
p6594
aVessential-software
p6595
aVsales-talent-agency-inc
p6596
aVharter-secrest-emery
p6597
aVhyperrig-ltd
p6598
aVcklear-ltd
p6599
aVbrain-master-arithmetic-ltd
p6600
aVhand-surgery-clinic
p6601
aVrothstein-kass
p6602
aVpaul-hastings
p6603
aVtrylon-smr
p6604
aVdealzone
p6605
aVurban-relations-marketing-group
p6606
aVthe-bateman-gruop
p6607
aVeulogik
p6608
aVsrk-communications
p6609
aVmathieu-davy
p6610
aVfranois-brocard
p6611
aVequinoa
p6612
aVchicago-firm
p6613
aVdallas-firm
p6614
aVsalesush-com
p6615
aVforkedtongues
p6616
aVmodo-marketing
p6617
aVippi
p6618
aVrss-one
p6619
aVreinhold-cohn-group
p6620
aVsharir-shiv-kadouch-co
p6621
aVqrios-webdiensten
p6622
aVfuelhaus
p6623
aVinterfuel
p6624
aVlevick-com-stratgagies-and-communications
p6625
aVmcnabb-associates
p6626
aVskyfield-communications
p6627
aVthe-spa-way
p6628
aVevers-fox
p6629
aVdiscovery-fuel
p6630
aVbrotman-winter-fried-communications
p6631
aVcooley-godward-kronish-llp
p6632
aVmww-group
p6633
aVglobal-net-access
p6634
aVgoodwin-procter
p6635
aVthe-mahoney-group
p6636
aVedward-swan-the-branding-people
p6637
aVedward-swan
p6638
aVcitilab
p6639
aVmp-thompson-associates
p6640
aVfresh-edge-llc
p6641
aVintelliwebhost
p6642
aVwarbweb
p6643
aVphase-2
p6644
aVhostforweb
p6645
aVintellilivehelp
p6646
aVucoz-web-service
p6647
aVortus-infotech
p6648
aVgreen-room-marketing
p6649
aVseo-group
p6650
aVtimelog
p6651
aVcrave-online
p6652
aVsonnenschein-nath-and-rosenthal
p6653
aVfused-solutions
p6654
aVkay-wharburton
p6655
aVdrupal-2
p6656
aVnelson-mullins
p6657
aVnix-bryson-associates
p6658
aVengineroom-brand-communications
p6659
aVm-c-c
p6660
aVrogers-cowan
p6661
aVcorporate-evolutions
p6662
aVqvorq
p6663
aVgiga-television
p6664
aVseiler-epstein-ziegler-applegate
p6665
aVtriplepoint
p6666
aVsonnenschein-rosenthal-and-nath
p6667
aVmakeeit-solutions
p6668
aVbaker-mckenzie
p6669
aVtechnoledge
p6670
aVwilmer-hale
p6671
aVbitgravity-2
p6672
aVbond-art-science
p6673
aVmintz-levin
p6674
aVhammarstrm-puhakka-partners-attorneys
p6675
aVx7g
p6676
aVyam-business-opportunities-ltd
p6677
aVyigal-arnon-co
p6678
aValerding-castor
p6679
aVkristian-andersen-associates
p6680
aVwebsushi
p6681
aVideato
p6682
aVinolam-formation
p6683
aVschwartz-communications
p6684
aVadequato
p6685
aVsample-print
p6686
aVbirchwood-group
p6687
aVgoyoke
p6688
aVskycastle-media
p6689
aVmaverick-pr
p6690
aVmaximus-world-llc
p6691
aVsheppard-mullin
p6692
aVsyncbus
p6693
aVzunyang-design
p6694
aVinfobeans
p6695
aVbaker-pacific
p6696
aVcreate
p6697
aVemmgi
p6698
aVonemode
p6699
aVpaul-jarvis
p6700
aVpaul-johnson
p6701
aVterremark
p6702
aVchandler-shechet
p6703
aVst-john-core
p6704
aVhughes-pittman-gupton
p6705
aVe-man
p6706
aVpremier-vevcani
p6707
aVani-hotels
p6708
aVheenan-blaikie
p6709
aVsnow-christenson-and-martineau
p6710
aVhawkins-cloward-simister
p6711
aVbrightstack-technologies
p6712
aVdissero
p6713
aVhellerehrman-europe
p6714
aVmatchstic
p6715
aVzertia
p6716
aVfuseproject
p6717
aVmoto
p6718
aVpb-tech-impact-solutions
p6719
aVunitrove
p6720
aVbespoken-communications
p6721
aVprovident-partners
p6722
aVmudd-law-offices
p6723
aVtnp-associates
p6724
aVjivaro-professional-headhunters
p6725
aVant-onaf-search-optimization-marketing
p6726
aVapeks-for
p6727
aVinter-ways
p6728
aVatlantis
p6729
aValeksandrija
p6730
aVeurohotel
p6731
aVinter-kont
p6732
aV5-element
p6733
aVkerpic
p6734
aVmsm
p6735
aVbraco
p6736
aVtanec
p6737
aVliviakis-financial-communications-inc
p6738
aVportent-interactive
p6739
aVdesign-about-town
p6740
aVberkman-pr
p6741
aVaquaray
p6742
aVautre-plante
p6743
aVscivestor
p6744
aVfounders-investment-banking
p6745
aVsagetopia
p6746
aVzag-studios
p6747
aVpr-works
p6748
aVgreenerprinter-com
p6749
aVcfca
p6750
aVcabinet-duponchel
p6751
aVtetragon
p6752
aVoreov-lad
p6753
aV20-januari
p6754
aVmarketwire
p6755
aVprweb
p6756
aVaxxess-business-consulting
p6757
aVlv-media-group
p6758
aVschmitz-corrigan-krause-co
p6759
aVcsar-queiroz
p6760
aVohm-inc
p6761
aVaon
p6762
aVny-mieg
p6763
aVbizner
p6764
aVkahn-associs
p6765
aVta-teabo
p6766
aVambasador
p6767
aVtoria
p6768
aVstone-bridge
p6769
aVmacedonia-travel
p6770
aVwebcentral
p6771
aVnetregistry
p6772
aVmelbourneit
p6773
aVyndeo
p6774
aVmediafirst
p6775
aVglasscanopy
p6776
aVglasscanopy
p6777
aVwealth-world
p6778
aVcorporate-planners
p6779
aVnaturally-man
p6780
aVcontinuum-worldwide
p6781
aVbozell
p6782
aVproskauer-rose-llp
p6783
aVrassak-experience
p6784
aVcirtex-hosting
p6785
aVpalmer-digital-media
p6786
aVsealand-graphics
p6787
aVsterling-communications
p6788
aVnetinsight-ebusiness-consultancy
p6789
aVvideoclix
p6790
aVmindsource
p6791
aVtrademark-productions
p6792
aVblock-legal
p6793
aVberesford-co
p6794
aVcreatormail
p6795
aVtamara-thompson
p6796
aVmarx-layne
p6797
aVthe-arts-and-technology-law-group
p6798
aVtargetscope
p6799
aVstrategics-inc
p6800
aVcorporate-suites-business-centers
p6801
aVeinheit-berlin-gmbh
p6802
aVwright-law-group
p6803
aVmountainside-cpa
p6804
aVelastra
p6805
aVca-news
p6806
aVartemis-film
p6807
aVdubberly-design-office
p6808
aVsandor-krauss
p6809
aVleonard-street-and-deinard
p6810
aVbubba-the-love-spongs-show
p6811
aVmyspace-com
p6812
aVsirius-radio-howard-stern-channel
p6813
aVcpa-storm
p6814
aVopie-anthony-show
p6815
aVcodegent
p6816
aVcarrot-communciations
p6817
aVdigbang
p6818
aVpenguincube
p6819
aVcrystalroot
p6820
aVbryan-cave
p6821
aVsughrue-mion
p6822
aVlithium-records
p6823
aVjafari-law
p6824
aVcohen-law
p6825
aVexcelpr-group
p6826
aVrachel-kay-pr
p6827
aVnokia-3g-service
p6828
aVvintage-filings
p6829
aVpearce-ferguson-davis
p6830
aVsutherlandgold
p6831
aVk-f-communications
p6832
aVblack-lowe-graham
p6833
aVcybertrails
p6834
aVukfast
p6835
aVwaterfront
p6836
aValston-bird
p6837
aVekm-patent
p6838
aVsarah-smith
p6839
aVjones-day
p6840
aVernst-young
p6841
aVxanadu
p6842
aVvistra
p6843
aVmaffey-com
p6844
aVhostalia
p6845
aVitl-bussines
p6846
aVspaulding-mccullough-tansil
p6847
aVrachel-morgan-pr
p6848
aVfabric-interactive
p6849
aVa-larry-ross-communications
p6850
aVaventure-media
p6851
aVaventure-host
p6852
aVfuel-mediaworks
p6853
aVpattishall-mcauliffe-newbury-hillaard-geraldson-llp
p6854
aVmyler-media
p6855
aVdeloitte
p6856
aVfurth-wilensky-mizrachi-knaani-law-offices
p6857
aVip-loft
p6858
aVedge-communications-inc
p6859
aVwhite-lee
p6860
aVdj-mc-com
p6861
aVbcf
p6862
aVbrouillette-associs
p6863
aVintelligaia-technologies
p6864
aVtensv
p6865
aVinsights-entertainment
p6866
aVicuc-moderation-services
p6867
aVwebtext-com
p6868
aVhaws-consulting-group
p6869
aVsuperpages-com
p6870
aVcinema-source
p6871
aVlava-row
p6872
aVdavis-brown-law-firm
p6873
aVhigh-road-communications
p6874
aVwuersch-gering-llp
p6875
aVnetsmartz
p6876
aVkc-associates
p6877
aVabn-amro
p6878
aVsolv
p6879
aVschut-van-der-ven
p6880
aVconvex-digital
p6881
aVzone-24x7
p6882
aVballard-spahr-andrews-ingersoll
p6883
aVred-consultancy
p6884
aVweinstock-scavo
p6885
aVrubinbrown-llp
p6886
aVflashpoint-pr
p6887
aVo2
p6888
aV3-mobile
p6889
aVcarphone-warehouse
p6890
aVphones-4-u
p6891
aVhinttech
p6892
aVhinttech-bv
p6893
aVintersectie-bv
p6894
aVcapitalize
p6895
aVparagon-legal
p6896
aVkids-images
p6897
aVbird-and-bird
p6898
aVolliance-group
p6899
aVtitan
p6900
aVmx-telecoms
p6901
aVreed-smith-llp
p6902
aVmicrobilt
p6903
aVmohler-nixon-williams
p6904
aVbeta-pr
p6905
aVhostedprojects
p6906
aVpixelmedia-asia
p6907
aVemail
p6908
aVscene-and-heard
p6909
aVthe-local-data-company
p6910
aVcontent-writer
p6911
aVlevine-katz-nannis-solomon
p6912
aVmorse-barnes-brown-pendleton
p6913
aVaccess-growth
p6914
aVwebmindtree
p6915
aVconcrete-creative
p6916
aVmoney-ideas
p6917
aVglam-media
p6918
aVinfogroup
p6919
aVcloudmark
p6920
aVoodle
p6921
aVspike-ddb
p6922
aVbill-baker-communications
p6923
aVlarkin-communications
p6924
aVleach-travell-britt
p6925
aVklausner-bendler-associates
p6926
aVsalesforce-com-2
p6927
aVtellem-worldwide
p6928
aVsun
p6929
aVairtel
p6930
aVsify
p6931
aVconvert-psd-2-html
p6932
aVihero
p6933
aVsecurity
p6934
aVvideo
p6935
aVpreskill-law
p6936
aVbalch-bingham-llp
p6937
aVvoxus
p6938
aVsybase
p6939
aVbt
p6940
aVpaypal
p6941
aVpostbank
p6942
aVtwothirty
p6943
aVgunster-yoakley
p6944
aVappnovation-technologies
p6945
aVpanther-express
p6946
aVsimple-sales-tracking
p6947
aVpanther-marketing
p6948
aVmedia-mayhem-corp
p6949
aVaustin-technology-incubator
p6950
aVuexdesigner
p6951
aVfoley-and-lardner
p6952
aVfunambol
p6953
aVequinix
p6954
aVcosentry
p6955
aVmyprivacy
p6956
aVnewvox
p6957
aVmygreen
p6958
aVmyone
p6959
aVcobalt-corporate-finance
p6960
aVdreams-hosting
p6961
aVbcod
p6962
aVmurdock-martell
p6963
aVfee-jeffries
p6964
aVfowler-white
p6965
aVc-l-values
p6966
aVfox-rothschild
p6967
aVrefero
p6968
aVpricewaterhousecoopers
p6969
aVaullo
p6970
aVpj-inc
p6971
aVaffinitos
p6972
aVbonelli-erede-pappalardo
p6973
aVstudio-legale-de-petris
p6974
aVtls-pwc
p6975
aVstudio-ceci
p6976
aVbwr
p6977
aVfound-design-interactive
p6978
aVfish-and-richardson
p6979
aVlee-graham
p6980
aVbristlecone-learning
p6981
aVtechnology
p6982
aVrich-may
p6983
aVdevelopmentnow
p6984
aViproserve-com
p6985
aVnucopro
p6986
aVsagent-advisors
p6987
aVzpryme-research-consulitng
p6988
aVthe-hoffman-agency
p6989
aVartful-thinkers-jamie-glass
p6990
aVwaxing-media-brian-johnson
p6991
aVattorney-andrew-lahser
p6992
aVlimelight-networks
p6993
aVasu-skysong
p6994
aVfenbo
p6995
aVdordrecht-chemicals
p6996
aVfresh4ever-refreshment-marketing-tool
p6997
aVrandy-south-design
p6998
aVesector-solutions
p6999
aVdexterity-pr
p7000
aVpfml
p7001
aVgriffith-hack
p7002
aVpdy
p7003
aVday-pitney
p7004
aVbennett-jones
p7005
aVgmv
p7006
aVdelibera-spi
p7007
aVinterdominios
p7008
aVstre-solutions
p7009
aVmww
p7010
aVnine-summer
p7011
aVred-tettemer
p7012
aVthe-adoption-triad
p7013
aVbtrax
p7014
aVserver-technology
p7015
aVtoprank-online-marketing
p7016
aVpgr-media
p7017
aVthe-atom-group
p7018
aVvideogamessocial
p7019
aVcapital-law-plc
p7020
aVyaman-communications
p7021
aVpandemic-labs
p7022
aVweber-shandwick
p7023
aVmorrison-foerster
p7024
aVgawking
p7025
aViridiuminteractive
p7026
aVred-giant-consulting
p7027
aVmiddleberg-communications
p7028
aVmogo
p7029
aVidea-grove
p7030
aVinterpark
p7031
aVg-market
p7032
aVeluminatepr
p7033
aVnewcom-computer-solutions
p7034
aVjwh-consulting
p7035
aVtd-solutions
p7036
aVsitening
p7037
aVthe-goodmix
p7038
aVmondo-music-productions
p7039
aVe-c-o
p7040
aVcooley-godward
p7041
aVduane-morris
p7042
aVknobbe-martens-olson-bear
p7043
aVzigron
p7044
aVpittsburgh-technology-council
p7045
aVp1
p7046
aVpeaktwo
p7047
aVhensley-kim-holzer
p7048
aVcymru
p7049
aVdiamond-creative
p7050
aVpaula-johns-communications
p7051
aVpillsbury-winthrop
p7052
aVx-ist
p7053
aVallisonpr
p7054
aVdata-cave
p7055
aVmcdermott-will-emery
p7056
aVmodis-it
p7057
aVnetpr-public-relations
p7058
aVnetpr
p7059
aValtersage
p7060
aVthe-planet
p7061
aVedu-council
p7062
aVnarrative-consulting
p7063
aVbootstraplabs
p7064
aVcarr-ferrell
p7065
aVgunderson-dettmer
p7066
aVskyhatt-corporate-identity
p7067
aVcalibre-one
p7068
aVinteractive-theory
p7069
aVlogixml-inc
p7070
aVred-javelin
p7071
aVosler-hoskin-harcourt
p7072
aVengine-yard-2
p7073
aVgrupo-ifedes
p7074
aVdhl
p7075
aVbush-ross-pa
p7076
aVakerman-senterfit
p7077
aVpwc
p7078
aVcjp-communications
p7079
aVglast-phillips-murray
p7080
aVexecutive-agent
p7081
aVpayscale
p7082
aVfutureworks
p7083
aVpacific-crest-law
p7084
aVchoate-hall-stewart
p7085
aVinfluential-strategies
p7086
aVcrossroads-pr
p7087
aVkevin-mallon
p7088
aVgiles-communications-llc
p7089
aVinfo-tech-assist
p7090
aVe-dreamz-inc
p7091
aVflyers-internet-communicatie
p7092
aVstrategon-capital
p7093
aVpumilia-adamac
p7094
aVartlab
p7095
aVkainos
p7096
aVisland-bridge
p7097
aVgraff-miville
p7098
aVprofit-abilities
p7099
aVlippin-group
p7100
aVgeiger
p7101
aVzingpr
p7102
aVmrm-studios-inc
p7103
aVboies-schiller-flexner
p7104
aVmoss-adams
p7105
aVtip-the-cow
p7106
aVthe-robin-shepherd-group
p7107
aVgolden-gekko
p7108
aVlechill
p7109
aVfusion-pr
p7110
aVnixon-peabody
p7111
aVtraverse-legal-plc
p7112
aVsketchin-sagl
p7113
aVtwo-pins-public-relations
p7114
aVeskenzi-pr
p7115
aVdynamite-partners
p7116
aVnun
p7117
aVfoley-hoag
p7118
aVrogers-hool
p7119
aVogilvy-renault
p7120
aVtuscan-advisors
p7121
aVoffit-kurman
p7122
aVsacks-public-relations
p7123
aVtaigmarks
p7124
aVyoder-ainlay-ulmer-buckingham
p7125
aVnet-mobile-ag
p7126
aVzuckerkommunikation
p7127
aVnixxie
p7128
aVketchum
p7129
aVinternational-media-advisors
p7130
aVkhrido-classifieds
p7131
aVfarris-vaughan-wills-murphy-llp
p7132
aVbyrne-assoc
p7133
aVdewey-rogge
p7134
aVpulkit-vasudha
p7135
aVfafinski-mark-johnson-p-a
p7136
aVfpweb
p7137
aVcharles-river-web-connections
p7138
aVpullman-comley
p7139
aVbateman-group
p7140
aVdowd-agency
p7141
aVmcmillan
p7142
aVrlm-pr
p7143
aVmasterplans
p7144
aVpepper-legal-consulting-group-llc
p7145
aVbrightone
p7146
aVit4communities
p7147
aVrichardson-patel-law-firm
p7148
aVred-chip-companies
p7149
aVtrumedia
p7150
aVanderson-analytics
p7151
aVkrause-center-for-innovation
p7152
aVbetter-world-books
p7153
aVwateroos
p7154
aVkoollage
p7155
aVglocap
p7156
aVjkt-communications
p7157
aVenter-media
p7158
aVzero-hour-marketing
p7159
aVenetica
p7160
aVaussie-host
p7161
aVa-small-orange
p7162
aVteleatlas
p7163
aVnavtech
p7164
aVfield-fisher-waterhouse
p7165
aVmoo-com
p7166
aVgifford-hillegass-ingwersen-llp
p7167
aVcohen-pollock-merlin-small-p-c
p7168
aVamsall-communications
p7169
aVpr2020
p7170
aVcontegix-inc
p7171
aVthe-ais-group
p7172
aVater-wynn
p7173
aVthoits-love-hershberger-and-mclean
p7174
aVclickbank
p7175
aVkaplow
p7176
aVgkh
p7177
aVguberman
p7178
aVventurearchetypes
p7179
aVuk2-net
p7180
aVprivate-equity-data-center
p7181
aVnorth-by-south
p7182
aVbeck-media-marketing
p7183
aVporter-novelli
p7184
aVpowerscourt
p7185
aVairfoil-pr
p7186
aVzezza-network
p7187
aVget-involved
p7188
aVlewis-pr
p7189
aVconsero-global-solutions
p7190
aVhutchison-law-group
p7191
aVjoele-franke-wilkinson-brimmer-katcher
p7192
aVweboom
p7193
aVprintfection-com
p7194
aVkapeos
p7195
aVbusiness-wire
p7196
aVgridsolv
p7197
aVvirtuso
p7198
aVpointer-pr
p7199
aVdle
p7200
aVghd-international
p7201
aVspeed-racer-enterprises
p7202
aVgtchannel-com
p7203
aVakibanana
p7204
aVvodafone
p7205
aVtechbridge
p7206
aVblinnpr
p7207
aVkraves-pr
p7208
aVaiim
p7209
aVparadigm-staffing
p7210
aVdigital-realty-trust
p7211
aVat-t
p7212
aVglobal-crossing
p7213
aVzoomf
p7214
aVdothomes
p7215
aVrimu-hosting
p7216
aVconjungo
p7217
aVedelman-digital
p7218
aVshift-communications
p7219
aVstealth-communications
p7220
aVhealth-food-news
p7221
aVfenwick-west
p7222
aVhoward-rice-nemerovski-canady-falk-rabkin
p7223
aVperkins-coie
p7224
aVseven-hills-partners
p7225
aVfastservers-net
p7226
aVdenis-kang
p7227
aVsoft-format-llc
p7228
aVmastiff-tech-pvt-ltd
p7229
aVubiquity-communications-2
p7230
aVsparkplug
p7231
aV1-1
p7232
aVbitpusher
p7233
aVjh-writing-marketing-services
p7234
aVemerge-pr
p7235
aVbrew-media-relations
p7236
aVe-zest-solutions-ltd
p7237
aVyovia
p7238
aVgrowthink
p7239
aVtype3
p7240
aVhnk-technology-services
p7241
aVtopaz-partners
p7242
aVmorgan-lewis
p7243
aVwilson-sonsini-goodrich-rosati
p7244
aVmenmo
p7245
aVdenis-hiller
p7246
aVlaunchsquad
p7247
aV104-west
p7248
aVblanc-otus
p7249
aVdorsey-whitney
p7250
aVatomic-pr
p7251
aVperkettpr
p7252
aV5w-public-relations
p7253
aVopsource
p7254
aVjpr-communications
p7255
aVbraintrust
p7256
aVhorn-group
p7257
aVdovetail-public-relations
p7258
aVinspire-communications
p7259
aVtrinity-law-group-llc
p7260
aVnexteats
p7261
aVminuteman-advisory-partners-llc
p7262
aVduco-media
p7263
aVmosso
p7264
aVinspiremedia
p7265
aVscoop-marketing
p7266
aVdouble-click
p7267
aVakamai
p7268
aVnielsen
p7269
aVwanlass-public-relations
p7270
aVnexxtep
p7271
aVrebecca-caroe
p7272
aVdaksa-technologies
p7273
aVkcsa-strategic-communications
p7274
aVspark-public-relations
p7275
aVelipseagency
p7276
aVthe-rosen-group
p7277
aVecapacity
p7278
aVronstadt-associates-pr
p7279
aVfolio-communications
p7280
aVthe-bohle-company
p7281
aVtelnor
p7282
aVmahangar-telephone
p7283
aVdogma-studios
p7284
aVbounce-cc
p7285
aVthe-pacific-west-communications
p7286
aVjoyent
p7287
aVrackspace
p7288
aVsaradyne
p7289
aVbryte
p7290
aVbluetie
p7291
aVwarweus
p7292
aVamazon
p7293
aVracepoint-group
p7294
aVdavis-wright-tremaine
p7295
aVrsm-mcgladrey
p7296
aVfour-kitchen-studios
p7297
aVscreamstream-interactive
p7298
aV31cw
p7299
aVoriginal-web-solutions
p7300
aVbinc
p7301
aVserverbeach
p7302
aVsupernatural-agency-inc
p7303
aVmoelis-company
p7304
aVaccelcia
p7305
aVoutcast-communications
p7306
aVss-pr
p7307
aVdla-piper
p7308
a.